	.section	__TEXT,__text,regular,pure_instructions
	.build_version macos, 11, 0
	.file	1 "/Users/yangzhenxun/Documents/GitHub/my-study/src.new/rust/system/rinux" "src/vga_buf.rs"
	.p2align	2
__ZN104_$LT$core..iter..adapters..copied..Copied$LT$I$GT$$u20$as$u20$core..iter..traits..iterator..Iterator$GT$4next17h41babc157dd80b3bE:
Lfunc_begin0:
	.file	2 "/private/tmp/rust-20240808-9779-6572l6/rustc-1.80.1-src/library/core/src/iter/adapters" "copied.rs"
	.loc	2 47 0
	.cfi_startproc
	sub	sp, sp, #48
	stp	x29, x30, [sp, #32]
	add	x29, sp, #32
	.cfi_def_cfa w29, 16
	.cfi_offset w30, -8
	.cfi_offset w29, -16
	mov	x8, x0
	str	x8, [sp, #16]
Ltmp0:
	.loc	2 48 9 prologue_end
	bl	__ZN91_$LT$core..slice..iter..Iter$LT$T$GT$$u20$as$u20$core..iter..traits..iterator..Iterator$GT$4next17h477ded974bcbbb33E
	str	x0, [sp, #8]
Ltmp1:
	.file	3 "/private/tmp/rust-20240808-9779-6572l6/rustc-1.80.1-src/library/core/src" "option.rs"
	.loc	3 1869 15
	ldr	x8, [sp, #8]
	subs	x8, x8, #0
	cset	x8, ne
	.loc	3 1869 9 is_stmt 0
	cbnz	x8, LBB0_2
	b	LBB0_1
LBB0_1:
	.loc	3 1871 21 is_stmt 1
	strb	wzr, [sp, #6]
	b	LBB0_3
LBB0_2:
	.loc	3 1870 19
	ldr	x8, [sp, #8]
	ldrb	w8, [x8]
	sturb	w8, [x29, #-1]
Ltmp2:
	.loc	3 1870 25 is_stmt 0
	strb	w8, [sp, #7]
	mov	w8, #1
	strb	w8, [sp, #6]
Ltmp3:
	.loc	3 1870 31
	b	LBB0_3
Ltmp4:
LBB0_3:
	.loc	2 49 6 is_stmt 1
	ldrb	w8, [sp, #6]
	ldrb	w1, [sp, #7]
	and	w0, w8, #0x1
	.loc	2 49 6 epilogue_begin is_stmt 0
	ldp	x29, x30, [sp, #32]
	add	sp, sp, #48
	ret
Ltmp5:
Lfunc_end0:
	.cfi_endproc

	.p2align	2
__ZN106_$LT$core..ops..range..Range$LT$usize$GT$$u20$as$u20$core..slice..index..SliceIndex$LT$$u5b$T$u5d$$GT$$GT$17get_unchecked_mut17h462ec0dbcf5d43bbE:
Lfunc_begin1:
	.file	4 "/private/tmp/rust-20240808-9779-6572l6/rustc-1.80.1-src/library/core/src/slice" "index.rs"
	.loc	4 382 0 is_stmt 1
	.cfi_startproc
	sub	sp, sp, #144
	stp	x29, x30, [sp, #128]
	add	x29, sp, #128
	.cfi_def_cfa w29, 16
	.cfi_offset w30, -8
	.cfi_offset w29, -16
	str	x0, [sp]
	str	x1, [sp, #8]
	str	x2, [sp, #16]
	str	x3, [sp, #24]
	str	x0, [sp, #48]
	str	x1, [sp, #56]
	str	x2, [sp, #64]
	str	x3, [sp, #72]
Ltmp6:
	.file	5 "/private/tmp/rust-20240808-9779-6572l6/rustc-1.80.1-src/library/core/src" "ub_checks.rs"
	.loc	5 74 35 prologue_end
	b	LBB1_1
LBB1_1:
	.loc	5 0 35 is_stmt 0
	ldr	x0, [sp]
	ldr	x1, [sp, #8]
	ldr	x2, [sp, #24]
	ldr	x8, [sp, #16]
Ltmp7:
	.file	6 "/private/tmp/rust-20240808-9779-6572l6/rustc-1.80.1-src/library/core/src/ptr" "mut_ptr.rs"
	.loc	6 2029 18 is_stmt 1
	stur	x8, [x29, #-48]
	stur	x2, [x29, #-40]
Ltmp8:
	.loc	5 75 17
	bl	__ZN106_$LT$core..ops..range..Range$LT$usize$GT$$u20$as$u20$core..slice..index..SliceIndex$LT$$u5b$T$u5d$$GT$$GT$17get_unchecked_mut18precondition_check17h8f150b00348b9a08E
	ldr	x9, [sp, #8]
	ldr	x8, [sp]
	.loc	4 394 27
	str	x9, [sp, #32]
	.loc	4 394 50 is_stmt 0
	str	x8, [sp, #40]
Ltmp9:
	.loc	5 74 35 is_stmt 1
	b	LBB1_2
LBB1_2:
	.loc	5 75 17
	ldr	x0, [sp, #32]
	ldr	x1, [sp, #40]
	bl	__ZN4core3num23_$LT$impl$u20$usize$GT$13unchecked_sub18precondition_check17h85c3a8a344d10583E
	b	LBB1_3
LBB1_3:
	.loc	5 0 17 is_stmt 0
	ldr	x8, [sp, #16]
	.file	7 "/private/tmp/rust-20240808-9779-6572l6/rustc-1.80.1-src/library/core/src/num" "uint_macros.rs"
	.loc	7 725 17 is_stmt 1
	ldr	x9, [sp, #32]
	ldr	x10, [sp, #40]
	subs	x1, x9, x10
	stur	x1, [x29, #-32]
Ltmp10:
	.loc	6 2164 9
	stur	x8, [x29, #-24]
Ltmp11:
	.loc	4 395 66
	ldr	x9, [sp, #40]
	stur	x9, [x29, #-16]
Ltmp12:
	.loc	6 1149 18
	ldr	x9, [sp, #40]
	add	x0, x8, x9
	stur	x0, [x29, #-8]
Ltmp13:
	.loc	4 397 6 epilogue_begin
	ldp	x29, x30, [sp, #128]
	add	sp, sp, #144
	ret
Ltmp14:
Lfunc_end1:
	.cfi_endproc

	.p2align	2
__ZN106_$LT$core..ops..range..Range$LT$usize$GT$$u20$as$u20$core..slice..index..SliceIndex$LT$$u5b$T$u5d$$GT$$GT$17get_unchecked_mut18precondition_check17h8f150b00348b9a08E:
Lfunc_begin2:
	.loc	5 66 0
	.cfi_startproc
	sub	sp, sp, #64
	stp	x29, x30, [sp, #48]
	add	x29, sp, #48
	.cfi_def_cfa w29, 16
	.cfi_offset w30, -8
	.cfi_offset w29, -16
	str	x1, [sp, #8]
	str	x2, [sp, #16]
	str	x0, [sp, #24]
	stur	x1, [x29, #-16]
	stur	x2, [x29, #-8]
Ltmp15:
	.loc	4 390 18 prologue_end
	subs	x8, x1, x0
	b.hs	LBB2_2
	b	LBB2_1
LBB2_1:
	.loc	5 68 21
	adrp	x0, l___unnamed_3@PAGE
	add	x0, x0, l___unnamed_3@PAGEOFF
	mov	w8, #101
	mov	x1, x8
	bl	__ZN4core9panicking14panic_nounwind17h8b678ae0c6dd71feE
LBB2_2:
	.loc	5 0 21 is_stmt 0
	ldr	x8, [sp, #8]
	ldr	x9, [sp, #16]
	.loc	4 390 34 is_stmt 1
	subs	x8, x8, x9
	b.hi	LBB2_1
	b	LBB2_3
LBB2_3:
	.loc	5 72 14 epilogue_begin
	ldp	x29, x30, [sp, #48]
	add	sp, sp, #64
	ret
Ltmp16:
Lfunc_end2:
	.cfi_endproc

	.p2align	2
__ZN106_$LT$core..ops..range..Range$LT$usize$GT$$u20$as$u20$core..slice..index..SliceIndex$LT$$u5b$T$u5d$$GT$$GT$9index_mut17ha04a3f4951879c25E:
Lfunc_begin3:
	.loc	4 411 0
	.cfi_startproc
	sub	sp, sp, #96
	stp	x29, x30, [sp, #80]
	add	x29, sp, #80
	.cfi_def_cfa w29, 16
	.cfi_offset w30, -8
	.cfi_offset w29, -16
	str	x0, [sp, #8]
	str	x1, [sp, #16]
	str	x2, [sp, #24]
	str	x3, [sp, #32]
	str	x4, [sp, #40]
	stur	x0, [x29, #-32]
	stur	x1, [x29, #-24]
	stur	x2, [x29, #-16]
	stur	x3, [x29, #-8]
Ltmp17:
	.loc	4 412 12 prologue_end
	subs	x8, x0, x1
	b.hi	LBB3_2
	b	LBB3_1
LBB3_1:
	.loc	4 0 12 is_stmt 0
	ldr	x8, [sp, #16]
	ldr	x9, [sp, #32]
	.loc	4 414 19 is_stmt 1
	subs	x8, x8, x9
	b.hi	LBB3_4
	b	LBB3_3
LBB3_2:
	.loc	4 0 19 is_stmt 0
	ldr	x2, [sp, #40]
	ldr	x1, [sp, #16]
	ldr	x0, [sp, #8]
	.loc	4 413 13 is_stmt 1
	bl	__ZN4core5slice5index22slice_index_order_fail17h87f483b085167d4aE
LBB3_3:
	.loc	4 0 13 is_stmt 0
	ldr	x3, [sp, #32]
	ldr	x2, [sp, #24]
	ldr	x1, [sp, #16]
	ldr	x0, [sp, #8]
	.loc	4 418 24 is_stmt 1
	bl	__ZN106_$LT$core..ops..range..Range$LT$usize$GT$$u20$as$u20$core..slice..index..SliceIndex$LT$$u5b$T$u5d$$GT$$GT$17get_unchecked_mut17h462ec0dbcf5d43bbE
	.loc	4 419 6 epilogue_begin
	ldp	x29, x30, [sp, #80]
	add	sp, sp, #96
	ret
LBB3_4:
	.loc	4 0 6 is_stmt 0
	ldr	x2, [sp, #40]
	ldr	x1, [sp, #32]
	ldr	x0, [sp, #16]
	.loc	4 415 13 is_stmt 1
	bl	__ZN4core5slice5index24slice_end_index_len_fail17h2a7e713f0894bad3E
Ltmp18:
Lfunc_end3:
	.cfi_endproc

	.p2align	2
__ZN49_$LT$usize$u20$as$u20$core..iter..range..Step$GT$17forward_unchecked17hb798ef1e3809e24cE:
Lfunc_begin4:
	.file	8 "/private/tmp/rust-20240808-9779-6572l6/rustc-1.80.1-src/library/core/src/iter" "range.rs"
	.loc	8 206 0
	.cfi_startproc
	sub	sp, sp, #48
	stp	x29, x30, [sp, #32]
	add	x29, sp, #32
	.cfi_def_cfa w29, 16
	.cfi_offset w30, -8
	.cfi_offset w29, -16
	str	x0, [sp]
	str	x1, [sp, #8]
	str	x0, [sp, #16]
	stur	x1, [x29, #-8]
Ltmp19:
	.loc	5 74 35 prologue_end
	b	LBB4_1
LBB4_1:
	.loc	5 0 35 is_stmt 0
	ldr	x1, [sp, #8]
	ldr	x0, [sp]
	.loc	5 75 17 is_stmt 1
	bl	__ZN4core3num23_$LT$impl$u20$usize$GT$13unchecked_add18precondition_check17ha6ba041f0d5d5c08E
	b	LBB4_2
LBB4_2:
	.loc	5 0 17 is_stmt 0
	ldr	x8, [sp]
	ldr	x9, [sp, #8]
	.loc	7 533 17 is_stmt 1
	add	x0, x8, x9
Ltmp20:
	.loc	8 209 10 epilogue_begin
	ldp	x29, x30, [sp, #32]
	add	sp, sp, #48
	ret
Ltmp21:
Lfunc_end4:
	.cfi_endproc

	.p2align	2
__ZN4core10intrinsics23is_val_statically_known17hb6b45461dcf6694eE:
Lfunc_begin5:
	.file	9 "/private/tmp/rust-20240808-9779-6572l6/rustc-1.80.1-src/library/core/src" "intrinsics.rs"
	.loc	9 2692 0
	.cfi_startproc
	sub	sp, sp, #16
	.cfi_def_cfa_offset 16
	strb	w0, [sp, #15]
	mov	w8, #0
Ltmp23:
	.loc	9 2694 2 prologue_end
	and	w0, w8, #0x1
	.loc	9 2694 2 epilogue_begin is_stmt 0
	add	sp, sp, #16
	ret
Ltmp24:
Lfunc_end5:
	.cfi_endproc

	.p2align	2
__ZN4core3fmt5Write10write_char17hbada09c455a62685E:
Lfunc_begin6:
	.file	10 "/private/tmp/rust-20240808-9779-6572l6/rustc-1.80.1-src/library/core/src/fmt" "mod.rs"
	.loc	10 178 0 is_stmt 1
	.cfi_startproc
	sub	sp, sp, #96
	stp	x29, x30, [sp, #80]
	add	x29, sp, #80
	.cfi_def_cfa w29, 16
	.cfi_offset w30, -8
	.cfi_offset w29, -16
	mov	x8, x0
	str	x8, [sp, #8]
	mov	x0, x1
	str	x8, [sp, #32]
	stur	w0, [x29, #-36]
	add	x1, sp, #28
Ltmp25:
	.loc	10 179 43 prologue_end
	str	wzr, [sp, #28]
	.loc	10 179 38 is_stmt 0
	mov	x8, x1
	stur	x8, [x29, #-32]
	mov	w8, #4
	mov	x2, x8
	stur	x2, [x29, #-24]
Ltmp26:
	.file	11 "/private/tmp/rust-20240808-9779-6572l6/rustc-1.80.1-src/library/core/src/char" "methods.rs"
	.loc	11 682 42 is_stmt 1
	bl	__ZN4core4char7methods15encode_utf8_raw17h356932d6da6d57abE
	mov	x2, x0
	ldr	x0, [sp, #8]
	str	x2, [sp, #16]
	mov	x2, x1
	ldr	x1, [sp, #16]
	mov	x8, x1
	stur	x8, [x29, #-16]
	stur	x2, [x29, #-8]
Ltmp27:
	.loc	10 179 9
	bl	__ZN59_$LT$rinux..vga_buf..Writer$u20$as$u20$core..fmt..Write$GT$9write_str17h6b294b3ff0b7565aE
	.loc	10 180 6 epilogue_begin
	ldp	x29, x30, [sp, #80]
	add	sp, sp, #96
	ret
Ltmp28:
Lfunc_end6:
	.cfi_endproc

	.p2align	2
__ZN4core3fmt5Write9write_fmt17hfa8d639ad3b22c6dE:
Lfunc_begin7:
	.loc	10 206 0
	.cfi_startproc
	sub	sp, sp, #32
	stp	x29, x30, [sp, #16]
	add	x29, sp, #16
	.cfi_def_cfa w29, 16
	.cfi_offset w30, -8
	.cfi_offset w29, -16
	mov	x8, x0
	str	x8, [sp, #8]
Ltmp29:
	.loc	10 235 9 prologue_end
	bl	__ZN75_$LT$$RF$mut$u20$W$u20$as$u20$core..fmt..Write..write_fmt..SpecWriteFmt$GT$14spec_write_fmt17h388ba9d8ae2ec304E
Ltmp30:
	.loc	10 236 6 epilogue_begin
	ldp	x29, x30, [sp, #16]
	add	sp, sp, #32
	ret
Ltmp31:
Lfunc_end7:
	.cfi_endproc

	.p2align	2
__ZN4core3fmt9Arguments23as_statically_known_str17hc30d56393b94a979E:
Lfunc_begin8:
	.loc	10 456 0
	.cfi_startproc
	sub	sp, sp, #96
	.cfi_def_cfa_offset 96
	mov	x8, x0
	str	x8, [sp, #64]
Ltmp33:
	.loc	10 446 16 prologue_end
	ldr	x8, [x0]
	str	x8, [sp]
	ldr	x8, [x0, #8]
	str	x8, [sp, #8]
	.loc	10 446 29 is_stmt 0
	ldr	x9, [x0, #24]
	str	x9, [sp, #16]
	.loc	10 447 14 is_stmt 1
	cbnz	x8, LBB8_2
	b	LBB8_1
LBB8_1:
	.loc	10 0 14 is_stmt 0
	ldr	x8, [sp, #16]
	.loc	10 447 18
	cbz	x8, LBB8_3
	b	LBB8_4
LBB8_2:
	.loc	10 0 18
	ldr	x8, [sp, #8]
	.loc	10 448 14 is_stmt 1
	subs	x8, x8, #1
	b.eq	LBB8_6
	b	LBB8_4
LBB8_3:
	.loc	10 447 25
	mov	w8, #1
	str	x8, [sp, #40]
	str	xzr, [sp, #48]
	.loc	10 447 32 is_stmt 0
	b	LBB8_5
LBB8_4:
	.loc	10 0 32
	adrp	x9, l___unnamed_4@PAGE
	adrp	x8, l___unnamed_4@PAGE
	add	x8, x8, l___unnamed_4@PAGEOFF
	.loc	10 449 18 is_stmt 1
	ldr	x9, [x9, l___unnamed_4@PAGEOFF]
	ldr	x8, [x8, #8]
	str	x9, [sp, #40]
	str	x8, [sp, #48]
	b	LBB8_5
Ltmp34:
LBB8_5:
	.loc	10 0 18 is_stmt 0
	add	x8, sp, #40
Ltmp35:
	.loc	10 458 54 is_stmt 1
	str	x8, [sp, #80]
Ltmp36:
	.loc	3 610 18
	ldr	x8, [sp, #40]
	subs	x8, x8, #0
	cset	x8, ne
	.file	12 "/private/tmp/rust-20240808-9779-6572l6/rustc-1.80.1-src/library/core/src/macros" "mod.rs"
	.loc	12 457 9
	subs	x8, x8, #1
	b.eq	LBB8_8
	b	LBB8_9
Ltmp37:
LBB8_6:
	.loc	12 0 9 is_stmt 0
	ldr	x8, [sp, #16]
Ltmp38:
	.loc	10 448 19 is_stmt 1
	cbnz	x8, LBB8_4
	b	LBB8_7
LBB8_7:
	.loc	10 0 19 is_stmt 0
	ldr	x8, [sp]
	.loc	10 448 15
	mov	x9, x8
	str	x9, [sp, #72]
Ltmp39:
	.loc	10 448 31
	ldr	x9, [x8]
	ldr	x8, [x8, #8]
	.loc	10 448 26
	str	x9, [sp, #40]
	str	x8, [sp, #48]
Ltmp40:
	.loc	10 448 32
	b	LBB8_5
Ltmp41:
LBB8_8:
	.loc	12 458 39 is_stmt 1
	mov	w8, #1
	strb	w8, [sp, #63]
	b	LBB8_10
LBB8_9:
	.loc	12 459 18
	strb	wzr, [sp, #63]
	b	LBB8_10
Ltmp42:
LBB8_10:
	.loc	10 458 12
	strb	wzr, [sp, #95]
	ldrb	w8, [sp, #95]
	tbnz	w8, #0, LBB8_12
	b	LBB8_11
LBB8_11:
	.loc	10 0 12 is_stmt 0
	adrp	x9, l___unnamed_4@PAGE
	adrp	x8, l___unnamed_4@PAGE
	add	x8, x8, l___unnamed_4@PAGEOFF
	.loc	10 458 80
	ldr	x9, [x9, l___unnamed_4@PAGEOFF]
	ldr	x8, [x8, #8]
	str	x9, [sp, #24]
	str	x8, [sp, #32]
	.loc	10 458 9
	b	LBB8_13
LBB8_12:
	.loc	10 458 69
	ldr	x9, [sp, #40]
	ldr	x8, [sp, #48]
	str	x9, [sp, #24]
	str	x8, [sp, #32]
	.loc	10 458 9
	b	LBB8_13
Ltmp43:
LBB8_13:
	.loc	10 459 6 is_stmt 1
	ldr	x0, [sp, #24]
	ldr	x1, [sp, #32]
	.loc	10 459 6 epilogue_begin is_stmt 0
	add	sp, sp, #96
	ret
Ltmp44:
Lfunc_end8:
	.cfi_endproc

	.p2align	2
__ZN4core3fmt9Arguments6new_v117h3b38f8bfd300d4deE:
Lfunc_begin9:
	.loc	10 349 0 is_stmt 1
	.cfi_startproc
	sub	sp, sp, #16
	.cfi_def_cfa_offset 16
	mov	x9, x0
	str	x9, [sp]
	mov	x9, x1
	str	x9, [sp, #8]
Ltmp46:
	.loc	10 354 9 prologue_end
	str	x0, [x8]
	mov	w9, #1
	str	x9, [x8, #8]
	adrp	x10, l___unnamed_4@PAGE
	adrp	x9, l___unnamed_4@PAGE
	add	x9, x9, l___unnamed_4@PAGEOFF
	ldr	x10, [x10, l___unnamed_4@PAGEOFF]
	ldr	x9, [x9, #8]
	str	x10, [x8, #32]
	str	x9, [x8, #40]
	str	x1, [x8, #16]
	str	xzr, [x8, #24]
	.loc	10 355 6 epilogue_begin
	add	sp, sp, #16
	ret
Ltmp47:
Lfunc_end9:
	.cfi_endproc

	.p2align	2
__ZN4core3mem6forget17h0698b53f26ef25f9E:
Lfunc_begin10:
	.file	13 "/private/tmp/rust-20240808-9779-6572l6/rustc-1.80.1-src/library/core/src/mem" "mod.rs"
	.loc	13 148 0
	.cfi_startproc
	sub	sp, sp, #16
	.cfi_def_cfa_offset 16
	str	x0, [sp, #8]
Ltmp49:
	.loc	13 150 2 prologue_end epilogue_begin
	add	sp, sp, #16
	ret
Ltmp50:
Lfunc_end10:
	.cfi_endproc

	.p2align	2
__ZN4core3num23_$LT$impl$u20$usize$GT$13unchecked_add18precondition_check17ha6ba041f0d5d5c08E:
Lfunc_begin11:
	.loc	5 66 0
	.cfi_startproc
	sub	sp, sp, #48
	stp	x29, x30, [sp, #32]
	add	x29, sp, #32
	.cfi_def_cfa w29, 16
	.cfi_offset w30, -8
	.cfi_offset w29, -16
	str	x0, [sp]
	str	x1, [sp, #8]
Ltmp51:
	.loc	7 2089 26 prologue_end
	adds	x9, x0, x1
	cset	w8, hs
	.loc	7 2089 18 is_stmt 0
	str	x9, [sp, #16]
	.loc	7 2089 21
	sturb	w8, [x29, #-1]
Ltmp52:
	.loc	7 528 23 is_stmt 1
	tbnz	w8, #0, LBB11_2
	b	LBB11_1
LBB11_1:
	.loc	5 72 14 epilogue_begin
	ldp	x29, x30, [sp, #32]
	add	sp, sp, #48
	ret
LBB11_2:
	.loc	5 68 21
	adrp	x0, l___unnamed_5@PAGE
	add	x0, x0, l___unnamed_5@PAGEOFF
	mov	w8, #69
	mov	x1, x8
	bl	__ZN4core9panicking14panic_nounwind17h8b678ae0c6dd71feE
Ltmp53:
Lfunc_end11:
	.cfi_endproc

	.p2align	2
__ZN4core3num23_$LT$impl$u20$usize$GT$13unchecked_sub18precondition_check17h85c3a8a344d10583E:
Lfunc_begin12:
	.loc	5 66 0
	.cfi_startproc
	sub	sp, sp, #48
	stp	x29, x30, [sp, #32]
	add	x29, sp, #32
	.cfi_def_cfa w29, 16
	.cfi_offset w30, -8
	.cfi_offset w29, -16
	str	x0, [sp]
	str	x1, [sp, #8]
Ltmp54:
	.loc	7 2188 26 prologue_end
	subs	x9, x0, x1
	subs	x8, x0, x1
	cset	w8, lo
	.loc	7 2188 18 is_stmt 0
	str	x9, [sp, #16]
	.loc	7 2188 21
	sturb	w8, [x29, #-1]
Ltmp55:
	.loc	7 720 23 is_stmt 1
	subs	x8, x0, x1
	b.lo	LBB12_2
	b	LBB12_1
LBB12_1:
	.loc	5 72 14 epilogue_begin
	ldp	x29, x30, [sp, #32]
	add	sp, sp, #48
	ret
LBB12_2:
	.loc	5 68 21
	adrp	x0, l___unnamed_6@PAGE
	add	x0, x0, l___unnamed_6@PAGEOFF
	mov	w8, #69
	mov	x1, x8
	bl	__ZN4core9panicking14panic_nounwind17h8b678ae0c6dd71feE
Ltmp56:
Lfunc_end12:
	.cfi_endproc

	.p2align	2
__ZN4core3ops8function6FnOnce9call_once17hb101a9e4376004ddE:
Lfunc_begin13:
	.file	14 "/private/tmp/rust-20240808-9779-6572l6/rustc-1.80.1-src/library/core/src/ops" "function.rs"
	.loc	14 250 0
	.cfi_startproc
	sub	sp, sp, #32
	stp	x29, x30, [sp, #16]
	add	x29, sp, #16
	.cfi_def_cfa w29, 16
	.cfi_offset w30, -8
	.cfi_offset w29, -16
Ltmp57:
	.loc	14 250 5 prologue_end
	sub	x0, x29, #2
	bl	__ZN5rinux7vga_buf6WRITER28_$u7b$$u7b$closure$u7d$$u7d$17hef081863fb422f1fE
	.loc	14 250 5 epilogue_begin is_stmt 0
	ldp	x29, x30, [sp, #16]
	add	sp, sp, #32
	ret
Ltmp58:
Lfunc_end13:
	.cfi_endproc

	.p2align	2
__ZN4core3ops8function6FnOnce9call_once17hff93a0b248ea17bfE:
Lfunc_begin14:
	.loc	14 250 0 is_stmt 1
	.cfi_startproc
	sub	sp, sp, #32
	stp	x29, x30, [sp, #16]
	add	x29, sp, #16
	.cfi_def_cfa w29, 16
	.cfi_offset w30, -8
	.cfi_offset w29, -16
	str	x0, [sp, #8]
Ltmp59:
	.loc	14 250 5 prologue_end
	blr	x0
	.loc	14 250 5 epilogue_begin is_stmt 0
	ldp	x29, x30, [sp, #16]
	add	sp, sp, #32
	ret
Ltmp60:
Lfunc_end14:
	.cfi_endproc

	.p2align	2
__ZN4core3ptr13read_volatile17h5d807babbd2cb412E:
Lfunc_begin15:
	.file	15 "/private/tmp/rust-20240808-9779-6572l6/rustc-1.80.1-src/library/core/src/ptr" "mod.rs"
	.loc	15 1695 0 is_stmt 1
	.cfi_startproc
	sub	sp, sp, #48
	stp	x29, x30, [sp, #32]
	add	x29, sp, #32
	.cfi_def_cfa w29, 16
	.cfi_offset w30, -8
	.cfi_offset w29, -16
	str	x0, [sp, #8]
	str	x0, [sp, #16]
Ltmp61:
	.loc	5 74 35 prologue_end
	b	LBB15_1
LBB15_1:
	.loc	5 0 35 is_stmt 0
	ldr	x0, [sp, #8]
	.loc	5 75 17 is_stmt 1
	mov	w8, #1
	mov	x1, x8
	bl	__ZN4core3ptr13read_volatile18precondition_check17h9ec240d6c99f71c2E
	.loc	5 74 13
	b	LBB15_2
LBB15_2:
	.loc	5 0 13 is_stmt 0
	ldr	x8, [sp, #8]
	.loc	15 1706 9 is_stmt 1
	ldrb	w9, [x8]
	ldrb	w8, [x8, #1]
	sturb	w9, [x29, #-2]
	sturb	w8, [x29, #-1]
	ldurb	w0, [x29, #-2]
	ldurb	w1, [x29, #-1]
	.loc	15 1708 2 epilogue_begin
	ldp	x29, x30, [sp, #32]
	add	sp, sp, #48
	ret
Ltmp62:
Lfunc_end15:
	.cfi_endproc

	.p2align	2
__ZN4core3ptr13read_volatile18precondition_check17h9ec240d6c99f71c2E:
Lfunc_begin16:
	.loc	5 66 0
	.cfi_startproc
	sub	sp, sp, #128
	stp	x29, x30, [sp, #112]
	add	x29, sp, #112
	.cfi_def_cfa w29, 16
	.cfi_offset w30, -8
	.cfi_offset w29, -16
	str	x0, [sp, #8]
	str	x1, [sp, #16]
Ltmp63:
	.loc	10 341 44 prologue_end
	adrp	x8, l___unnamed_7@PAGE
	add	x8, x8, l___unnamed_7@PAGEOFF
	str	x8, [sp, #24]
	stur	x0, [x29, #-32]
	stur	x1, [x29, #-24]
Ltmp64:
	.file	16 "/private/tmp/rust-20240808-9779-6572l6/rustc-1.80.1-src/library/core/src/ptr" "const_ptr.rs"
	.loc	16 52 28
	stur	x0, [x29, #-16]
Ltmp65:
	.loc	5 119 6
	cbnz	x0, LBB16_2
	b	LBB16_1
Ltmp66:
LBB16_1:
	.loc	15 1704 18
	b	LBB16_3
LBB16_2:
	.loc	15 0 18 is_stmt 0
	ldr	x8, [sp, #16]
Ltmp67:
	.loc	7 80 20 is_stmt 1
	fmov	d0, x8
	cnt.8b	v0, v0
	uaddlv.8b	h0, v0
	stur	s0, [x29, #-4]
	ldur	w8, [x29, #-4]
Ltmp68:
	.loc	16 1669 13
	subs	w8, w8, #1
	b.eq	LBB16_4
	b	LBB16_5
Ltmp69:
LBB16_3:
	.loc	5 68 21
	adrp	x0, l___unnamed_8@PAGE
	add	x0, x0, l___unnamed_8@PAGEOFF
	mov	w8, #110
	mov	x1, x8
	bl	__ZN4core9panicking14panic_nounwind17h8b678ae0c6dd71feE
LBB16_4:
	.loc	5 0 21 is_stmt 0
	ldr	x8, [sp, #8]
	ldr	x9, [sp, #16]
Ltmp70:
	.loc	16 1675 26 is_stmt 1
	subs	x9, x9, #1
	.loc	16 1675 13 is_stmt 0
	and	x8, x8, x9
Ltmp71:
	.loc	15 1704 18 is_stmt 1
	cbz	x8, LBB16_6
	b	LBB16_3
LBB16_5:
	.loc	15 0 18 is_stmt 0
	add	x0, sp, #32
Ltmp72:
	.loc	10 343 9 is_stmt 1
	adrp	x8, l___unnamed_7@PAGE
	add	x8, x8, l___unnamed_7@PAGEOFF
	str	x8, [sp, #32]
	mov	w8, #1
	str	x8, [sp, #40]
	adrp	x8, l___unnamed_4@PAGE
	adrp	x9, l___unnamed_4@PAGE
	add	x9, x9, l___unnamed_4@PAGEOFF
	ldr	x10, [x8, l___unnamed_4@PAGEOFF]
	mov	w8, #8
	ldr	x9, [x9, #8]
	str	x10, [sp, #64]
	str	x9, [sp, #72]
	str	x8, [sp, #48]
	str	xzr, [sp, #56]
Ltmp73:
	.loc	16 1670 13
	adrp	x1, l___unnamed_9@PAGE
	add	x1, x1, l___unnamed_9@PAGEOFF
	bl	__ZN4core9panicking9panic_fmt17h48dfedcd5cf205f7E
Ltmp74:
LBB16_6:
	.loc	5 72 14 epilogue_begin
	ldp	x29, x30, [sp, #112]
	add	sp, sp, #128
	ret
Ltmp75:
Lfunc_end16:
	.cfi_endproc
	.file	17 "/private/tmp/rust-20240808-9779-6572l6/rustc-1.80.1-src/library/core/src" "panic.rs"

	.p2align	2
__ZN4core3ptr14write_volatile17h22598ef14c973c82E:
Lfunc_begin17:
	.loc	15 1774 0
	.cfi_startproc
	sub	sp, sp, #48
	stp	x29, x30, [sp, #32]
	add	x29, sp, #32
	.cfi_def_cfa w29, 16
	.cfi_offset w30, -8
	.cfi_offset w29, -16
	str	x0, [sp]
	str	w1, [sp, #8]
	str	w2, [sp, #12]
	str	x0, [sp, #16]
	sturb	w1, [x29, #-2]
	sturb	w2, [x29, #-1]
Ltmp76:
	.loc	5 74 35 prologue_end
	b	LBB17_1
LBB17_1:
	.loc	5 0 35 is_stmt 0
	ldr	x0, [sp]
	.loc	5 75 17 is_stmt 1
	mov	w8, #1
	mov	x1, x8
	bl	__ZN4core3ptr14write_volatile18precondition_check17h7bea240514666bcbE
	.loc	5 74 13
	b	LBB17_2
LBB17_2:
	.loc	5 0 13 is_stmt 0
	ldr	w8, [sp, #12]
	ldr	x9, [sp]
	ldr	w10, [sp, #8]
	.loc	15 1785 9 is_stmt 1
	strb	w10, [x9]
	strb	w8, [x9, #1]
	.loc	15 1787 2 epilogue_begin
	ldp	x29, x30, [sp, #32]
	add	sp, sp, #48
	ret
Ltmp77:
Lfunc_end17:
	.cfi_endproc

	.p2align	2
__ZN4core3ptr14write_volatile18precondition_check17h7bea240514666bcbE:
Lfunc_begin18:
	.loc	5 66 0
	.cfi_startproc
	sub	sp, sp, #128
	stp	x29, x30, [sp, #112]
	add	x29, sp, #112
	.cfi_def_cfa w29, 16
	.cfi_offset w30, -8
	.cfi_offset w29, -16
	str	x0, [sp]
	str	x1, [sp, #8]
Ltmp78:
	.loc	10 341 44 prologue_end
	adrp	x8, l___unnamed_7@PAGE
	add	x8, x8, l___unnamed_7@PAGEOFF
	str	x8, [sp, #16]
	stur	x0, [x29, #-40]
	stur	x1, [x29, #-32]
Ltmp79:
	.loc	15 1783 53
	stur	x0, [x29, #-24]
Ltmp80:
	.loc	16 52 28
	stur	x0, [x29, #-16]
Ltmp81:
	.loc	5 119 6
	cbnz	x0, LBB18_2
	b	LBB18_1
Ltmp82:
LBB18_1:
	.loc	15 1783 18
	b	LBB18_3
LBB18_2:
	.loc	15 0 18 is_stmt 0
	ldr	x8, [sp, #8]
Ltmp83:
	.loc	7 80 20 is_stmt 1
	fmov	d0, x8
	cnt.8b	v0, v0
	uaddlv.8b	h0, v0
	stur	s0, [x29, #-4]
	ldur	w8, [x29, #-4]
Ltmp84:
	.loc	16 1669 13
	subs	w8, w8, #1
	b.eq	LBB18_4
	b	LBB18_5
Ltmp85:
LBB18_3:
	.loc	5 68 21
	adrp	x0, l___unnamed_10@PAGE
	add	x0, x0, l___unnamed_10@PAGEOFF
	mov	w8, #111
	mov	x1, x8
	bl	__ZN4core9panicking14panic_nounwind17h8b678ae0c6dd71feE
LBB18_4:
	.loc	5 0 21 is_stmt 0
	ldr	x8, [sp]
	ldr	x9, [sp, #8]
Ltmp86:
	.loc	16 1675 26 is_stmt 1
	subs	x9, x9, #1
	.loc	16 1675 13 is_stmt 0
	and	x8, x8, x9
Ltmp87:
	.loc	15 1783 18 is_stmt 1
	cbz	x8, LBB18_6
	b	LBB18_3
LBB18_5:
	.loc	15 0 18 is_stmt 0
	add	x0, sp, #24
Ltmp88:
	.loc	10 343 9 is_stmt 1
	adrp	x8, l___unnamed_7@PAGE
	add	x8, x8, l___unnamed_7@PAGEOFF
	str	x8, [sp, #24]
	mov	w8, #1
	str	x8, [sp, #32]
	adrp	x8, l___unnamed_4@PAGE
	adrp	x9, l___unnamed_4@PAGE
	add	x9, x9, l___unnamed_4@PAGEOFF
	ldr	x10, [x8, l___unnamed_4@PAGEOFF]
	mov	w8, #8
	ldr	x9, [x9, #8]
	str	x10, [sp, #56]
	str	x9, [sp, #64]
	str	x8, [sp, #40]
	str	xzr, [sp, #48]
Ltmp89:
	.loc	16 1670 13
	adrp	x1, l___unnamed_9@PAGE
	add	x1, x1, l___unnamed_9@PAGEOFF
	bl	__ZN4core9panicking9panic_fmt17h48dfedcd5cf205f7E
Ltmp90:
LBB18_6:
	.loc	5 72 14 epilogue_begin
	ldp	x29, x30, [sp, #112]
	add	sp, sp, #128
	ret
Ltmp91:
Lfunc_end18:
	.cfi_endproc

	.p2align	2
__ZN4core3ptr37drop_in_place$LT$core..fmt..Error$GT$17h0e9f07b7cfab1f63E:
Lfunc_begin19:
	.loc	15 542 0
	.cfi_startproc
	sub	sp, sp, #16
	.cfi_def_cfa_offset 16
	str	x0, [sp, #8]
Ltmp93:
	.loc	15 542 1 prologue_end epilogue_begin
	add	sp, sp, #16
	ret
Ltmp94:
Lfunc_end19:
	.cfi_endproc

	.p2align	2
__ZN4core3ptr43drop_in_place$LT$rinux..vga_buf..Writer$GT$17hc98e4d7758d7d56aE:
Lfunc_begin20:
	.loc	15 542 0
	.cfi_startproc
	sub	sp, sp, #16
	.cfi_def_cfa_offset 16
	str	x0, [sp, #8]
Ltmp96:
	.loc	15 542 1 prologue_end epilogue_begin
	add	sp, sp, #16
	ret
Ltmp97:
Lfunc_end20:
	.cfi_endproc

	.p2align	2
__ZN4core3ptr74drop_in_place$LT$spin..mutex..MutexGuard$LT$rinux..vga_buf..Writer$GT$$GT$17h806ea6bafc588c7cE:
Lfunc_begin21:
	.loc	15 542 0
	.cfi_startproc
	sub	sp, sp, #32
	stp	x29, x30, [sp, #16]
	add	x29, sp, #16
	.cfi_def_cfa w29, 16
	.cfi_offset w30, -8
	.cfi_offset w29, -16
	mov	x8, x0
	str	x8, [sp, #8]
Ltmp98:
	.loc	15 542 1 prologue_end
	bl	__ZN4core3ptr84drop_in_place$LT$spin..mutex..spin..SpinMutexGuard$LT$rinux..vga_buf..Writer$GT$$GT$17he4ba7c679c00f7a7E
	.loc	15 542 1 epilogue_begin is_stmt 0
	ldp	x29, x30, [sp, #16]
	add	sp, sp, #32
	ret
Ltmp99:
Lfunc_end21:
	.cfi_endproc

	.p2align	2
__ZN4core3ptr84drop_in_place$LT$spin..mutex..spin..SpinMutexGuard$LT$rinux..vga_buf..Writer$GT$$GT$17he4ba7c679c00f7a7E:
Lfunc_begin22:
	.loc	15 542 0 is_stmt 1
	.cfi_startproc
	sub	sp, sp, #32
	stp	x29, x30, [sp, #16]
	add	x29, sp, #16
	.cfi_def_cfa w29, 16
	.cfi_offset w30, -8
	.cfi_offset w29, -16
	mov	x8, x0
	str	x8, [sp, #8]
Ltmp100:
	.loc	15 542 1 prologue_end
	bl	__ZN84_$LT$spin..mutex..spin..SpinMutexGuard$LT$T$GT$$u20$as$u20$core..ops..drop..Drop$GT$4drop17hb42ce8ef3a1e26d4E
	.loc	15 542 1 epilogue_begin is_stmt 0
	ldp	x29, x30, [sp, #16]
	add	sp, sp, #32
	ret
Ltmp101:
Lfunc_end22:
	.cfi_endproc

	.p2align	2
__ZN4core3ptr93drop_in_place$LT$spin..lazy..Lazy$LT$spin..mutex..Mutex$LT$rinux..vga_buf..Writer$GT$$GT$$GT$17hd3cc0750b156fee6E:
Lfunc_begin23:
	.loc	15 542 0 is_stmt 1
	.cfi_startproc
	sub	sp, sp, #32
	stp	x29, x30, [sp, #16]
	add	x29, sp, #16
	.cfi_def_cfa w29, 16
	.cfi_offset w30, -8
	.cfi_offset w29, -16
	mov	x8, x0
	str	x8, [sp, #8]
Ltmp102:
	.loc	15 542 1 prologue_end
	bl	__ZN4core3ptr93drop_in_place$LT$spin..once..Once$LT$spin..mutex..Mutex$LT$rinux..vga_buf..Writer$GT$$GT$$GT$17h74fb5405e7765ecaE
	.loc	15 542 1 epilogue_begin is_stmt 0
	ldp	x29, x30, [sp, #16]
	add	sp, sp, #32
	ret
Ltmp103:
Lfunc_end23:
	.cfi_endproc

	.p2align	2
__ZN4core3ptr93drop_in_place$LT$spin..once..Once$LT$spin..mutex..Mutex$LT$rinux..vga_buf..Writer$GT$$GT$$GT$17h74fb5405e7765ecaE:
Lfunc_begin24:
	.loc	15 542 0 is_stmt 1
	.cfi_startproc
	sub	sp, sp, #32
	stp	x29, x30, [sp, #16]
	add	x29, sp, #16
	.cfi_def_cfa w29, 16
	.cfi_offset w30, -8
	.cfi_offset w29, -16
	mov	x8, x0
	str	x8, [sp, #8]
Ltmp104:
	.loc	15 542 1 prologue_end
	bl	__ZN71_$LT$spin..once..Once$LT$T$C$R$GT$$u20$as$u20$core..ops..drop..Drop$GT$4drop17h23725374f7b8297eE
	.loc	15 542 1 epilogue_begin is_stmt 0
	ldp	x29, x30, [sp, #16]
	add	sp, sp, #32
	ret
Ltmp105:
Lfunc_end24:
	.cfi_endproc

	.p2align	2
__ZN4core3str21_$LT$impl$u20$str$GT$5bytes17h60761ede4c6ffd7aE:
Lfunc_begin25:
	.file	18 "/private/tmp/rust-20240808-9779-6572l6/rustc-1.80.1-src/library/core/src/str" "mod.rs"
	.loc	18 933 0 is_stmt 1
	.cfi_startproc
	sub	sp, sp, #96
	.cfi_def_cfa_offset 96
	str	x0, [sp]
	str	x1, [sp, #8]
Ltmp107:
	.loc	18 322 18 prologue_end
	str	x0, [sp, #16]
	str	x1, [sp, #24]
Ltmp108:
	.file	19 "/private/tmp/rust-20240808-9779-6572l6/rustc-1.80.1-src/library/core/src/slice" "iter.rs"
	.loc	19 93 19
	str	x1, [sp, #32]
Ltmp109:
	.file	20 "/private/tmp/rust-20240808-9779-6572l6/rustc-1.80.1-src/library/core/src/ptr" "non_null.rs"
	.loc	20 1854 18
	str	x0, [sp, #40]
	str	x1, [sp, #48]
Ltmp110:
	.loc	20 476 18
	str	x0, [sp, #56]
Ltmp111:
	.loc	20 351 9
	str	x0, [sp, #64]
Ltmp112:
	.loc	6 1149 18
	add	x1, x0, x1
Ltmp113:
	.loc	19 98 63
	str	x1, [sp, #72]
Ltmp114:
	.loc	19 100 13
	str	x0, [sp, #80]
	str	x1, [sp, #88]
Ltmp115:
	.loc	18 935 6 epilogue_begin
	add	sp, sp, #96
	ret
Ltmp116:
Lfunc_end25:
	.cfi_endproc
	.file	21 "/private/tmp/rust-20240808-9779-6572l6/rustc-1.80.1-src/library/core/src/slice" "mod.rs"

	.p2align	2
__ZN4core4cell13Cell$LT$T$GT$4take17ha6cccf8dbea63aa3E:
Lfunc_begin26:
	.file	22 "/private/tmp/rust-20240808-9779-6572l6/rustc-1.80.1-src/library/core/src" "cell.rs"
	.loc	22 651 0
	.cfi_startproc
	sub	sp, sp, #64
	stp	x29, x30, [sp, #48]
	add	x29, sp, #48
	.cfi_def_cfa w29, 16
	.cfi_offset w30, -8
	.cfi_offset w29, -16
	str	x0, [sp]
	str	x0, [sp, #8]
Ltmp117:
	.loc	22 652 22 prologue_end
	bl	__ZN72_$LT$core..option..Option$LT$T$GT$$u20$as$u20$core..default..Default$GT$7default17h352eb9aa714cf55fE
	ldr	x9, [sp]
	mov	x8, x0
	mov	x0, x8
	str	x0, [sp, #16]
Ltmp118:
	.loc	22 497 37
	mov	x0, x9
	str	x0, [sp, #24]
Ltmp119:
	.loc	22 2148 9
	mov	x0, x9
	stur	x0, [x29, #-16]
Ltmp120:
	.loc	15 1325 9
	ldr	x0, [x9]
	stur	x0, [x29, #-8]
Ltmp121:
	.loc	15 1534 9
	str	x8, [x9]
Ltmp122:
	.loc	22 653 6 epilogue_begin
	ldp	x29, x30, [sp, #48]
	add	sp, sp, #64
	ret
Ltmp123:
Lfunc_end26:
	.cfi_endproc

	.p2align	2
__ZN4core4char7methods15encode_utf8_raw17h356932d6da6d57abE:
Lfunc_begin27:
	.loc	11 1769 0
	.cfi_startproc
	sub	sp, sp, #464
	stp	x28, x27, [sp, #432]
	stp	x29, x30, [sp, #448]
	add	x29, sp, #448
	.cfi_def_cfa w29, 16
	.cfi_offset w30, -8
	.cfi_offset w29, -16
	.cfi_offset w27, -24
	.cfi_offset w28, -32
	add	x8, sp, #176
	str	x8, [sp, #8]
	str	x1, [sp, #16]
	str	x2, [sp, #24]
Ltmp124:
	.loc	10 350 9 prologue_end
	adrp	x9, l___unnamed_11@PAGE
	add	x9, x9, l___unnamed_11@PAGEOFF
	str	x9, [sp, #40]
	str	w0, [sp, #52]
	str	x1, [x8, #96]
	str	x2, [x8, #104]
Ltmp125:
	.loc	11 1742 8
	ldr	w8, [sp, #52]
	subs	w8, w8, #128
	b.lo	LBB27_2
	b	LBB27_1
LBB27_1:
	.loc	11 1744 15
	ldr	w8, [sp, #52]
	subs	w8, w8, #2048
	b.lo	LBB27_4
	b	LBB27_3
LBB27_2:
	.loc	11 1743 9
	mov	w8, #1
	str	x8, [sp, #56]
	.loc	11 1742 5
	b	LBB27_9
LBB27_3:
	.loc	11 1746 15
	ldr	w8, [sp, #52]
	subs	w8, w8, #16, lsl #12
	b.lo	LBB27_6
	b	LBB27_5
LBB27_4:
	.loc	11 1745 9
	mov	w8, #2
	str	x8, [sp, #56]
	.loc	11 1744 12
	b	LBB27_8
LBB27_5:
	.loc	11 1749 9
	mov	w8, #4
	str	x8, [sp, #56]
	.loc	11 1746 12
	b	LBB27_7
LBB27_6:
	.loc	11 1747 9
	mov	w8, #3
	str	x8, [sp, #56]
	.loc	11 1746 12
	b	LBB27_7
LBB27_7:
	.loc	11 1744 12
	b	LBB27_8
LBB27_8:
	.loc	11 1742 5
	b	LBB27_9
Ltmp126:
LBB27_9:
	.loc	11 1771 12
	ldr	x8, [sp, #56]
	str	x8, [sp]
	.loc	11 1771 5 is_stmt 0
	subs	x8, x8, #1
	b.eq	LBB27_14
	b	LBB27_10
LBB27_10:
	.loc	11 0 5
	ldr	x8, [sp]
	.loc	11 1771 5
	subs	x8, x8, #2
	b.eq	LBB27_15
	b	LBB27_11
LBB27_11:
	.loc	11 0 5
	ldr	x8, [sp]
	.loc	11 1771 5
	subs	x8, x8, #3
	b.eq	LBB27_16
	b	LBB27_12
LBB27_12:
	.loc	11 0 5
	ldr	x8, [sp]
	.loc	11 1771 5
	subs	x8, x8, #4
	b.eq	LBB27_17
	b	LBB27_13
LBB27_13:
	.loc	11 0 5
	ldr	x10, [sp, #8]
	ldr	x11, [sp, #24]
	add	x9, sp, #56
	.loc	11 1790 14 is_stmt 1
	mov	x8, x9
	str	x8, [x10, #200]
	adrp	x8, __ZN4core3fmt3num3imp54_$LT$impl$u20$core..fmt..Display$u20$for$u20$usize$GT$3fmt17hf6ee34a457f467f9E@GOTPAGE
	ldr	x8, [x8, __ZN4core3fmt3num3imp54_$LT$impl$u20$core..fmt..Display$u20$for$u20$usize$GT$3fmt17hf6ee34a457f467f9E@GOTPAGEOFF]
Ltmp127:
	.file	23 "/private/tmp/rust-20240808-9779-6572l6/rustc-1.80.1-src/library/core/src/fmt" "rt.rs"
	.loc	23 113 22
	mov	x12, x8
	str	x12, [x10, #208]
Ltmp128:
	.loc	23 103 21
	str	x9, [x10, #48]
	mov	x9, x8
	str	x9, [x10, #56]
	.loc	23 102 13
	ldr	q0, [x10, #48]
	str	q0, [sp, #160]
	add	x12, sp, #52
Ltmp129:
	.loc	11 1790 14
	mov	x9, x12
	str	x9, [x10, #216]
	adrp	x9, __ZN4core3fmt3num53_$LT$impl$u20$core..fmt..UpperHex$u20$for$u20$u32$GT$3fmt17ha49f7ef713ee0bf8E@GOTPAGE
	ldr	x9, [x9, __ZN4core3fmt3num53_$LT$impl$u20$core..fmt..UpperHex$u20$for$u20$u32$GT$3fmt17ha49f7ef713ee0bf8E@GOTPAGEOFF]
Ltmp130:
	.loc	23 129 22
	mov	x13, x9
	str	x13, [x10, #224]
Ltmp131:
	.loc	23 103 21
	str	x12, [x10, #64]
	str	x9, [x10, #72]
	.loc	23 102 13
	ldr	q0, [x10, #64]
	str	q0, [x10]
	add	x9, sp, #216
Ltmp132:
	.loc	11 1794 13
	str	x11, [x10, #40]
	.loc	11 1790 14
	mov	x11, x9
	str	x11, [x10, #232]
Ltmp133:
	.loc	23 113 22
	mov	x11, x8
	str	x11, [x10, #240]
Ltmp134:
	.loc	23 103 21
	str	x9, [x10, #80]
	str	x8, [x10, #88]
	.loc	23 102 13
	ldr	q0, [x10, #80]
	str	q0, [x10, #16]
Ltmp135:
	.loc	11 1790 14
	ldr	q0, [sp, #160]
	add	x9, sp, #112
	str	q0, [sp, #112]
	ldr	q0, [x10]
	str	q0, [sp, #128]
	ldr	q0, [x10, #16]
	str	q0, [sp, #144]
	mov	x8, x9
	str	x8, [x10, #248]
	add	x0, sp, #64
Ltmp136:
	.loc	10 354 9
	adrp	x8, l___unnamed_11@PAGE
	add	x8, x8, l___unnamed_11@PAGEOFF
	str	x8, [sp, #64]
	mov	w8, #3
	str	x8, [sp, #72]
	adrp	x11, l___unnamed_4@PAGE
	adrp	x10, l___unnamed_4@PAGE
	add	x10, x10, l___unnamed_4@PAGEOFF
	ldr	x11, [x11, l___unnamed_4@PAGEOFF]
	ldr	x10, [x10, #8]
	str	x11, [sp, #96]
	str	x10, [sp, #104]
	str	x9, [sp, #80]
	str	x8, [sp, #88]
Ltmp137:
	.loc	11 1790 14
	adrp	x1, l___unnamed_12@PAGE
	add	x1, x1, l___unnamed_12@PAGEOFF
	bl	__ZN4core9panicking9panic_fmt17h48dfedcd5cf205f7E
LBB27_14:
	.loc	11 0 14 is_stmt 0
	ldr	x8, [sp, #24]
	.loc	11 1772 13 is_stmt 1
	subs	x8, x8, #1
	b.hs	LBB27_18
	b	LBB27_13
LBB27_15:
	.loc	11 0 13 is_stmt 0
	ldr	x8, [sp, #24]
	.loc	11 1775 13 is_stmt 1
	subs	x8, x8, #2
	b.hs	LBB27_20
	b	LBB27_13
LBB27_16:
	.loc	11 0 13 is_stmt 0
	ldr	x8, [sp, #24]
	.loc	11 1779 13 is_stmt 1
	subs	x8, x8, #3
	b.hs	LBB27_21
	b	LBB27_13
LBB27_17:
	.loc	11 0 13 is_stmt 0
	ldr	x8, [sp, #24]
	.loc	11 1784 13 is_stmt 1
	subs	x8, x8, #4
	b.hs	LBB27_22
	b	LBB27_13
LBB27_18:
	.loc	11 0 13 is_stmt 0
	ldr	x9, [sp, #16]
	ldr	x10, [sp, #8]
	.loc	11 1772 14 is_stmt 1
	mov	x8, x9
	str	x8, [x10, #112]
Ltmp138:
	.loc	11 1773 13
	ldr	w8, [sp, #52]
	strb	w8, [x9]
Ltmp139:
	.loc	11 1774 9
	b	LBB27_19
LBB27_19:
	.loc	11 0 9 is_stmt 0
	ldr	x3, [sp, #24]
	ldr	x2, [sp, #16]
	ldr	x8, [sp, #8]
	.loc	11 1797 16 is_stmt 1
	ldr	x1, [sp, #56]
	str	x1, [x8, #192]
Ltmp140:
	.loc	4 457 9
	mov	x0, #0
	adrp	x4, l___unnamed_13@PAGE
	add	x4, x4, l___unnamed_13@PAGEOFF
	bl	__ZN106_$LT$core..ops..range..Range$LT$usize$GT$$u20$as$u20$core..slice..index..SliceIndex$LT$$u5b$T$u5d$$GT$$GT$9index_mut17ha04a3f4951879c25E
Ltmp141:
	.loc	11 1798 2 epilogue_begin
	ldp	x29, x30, [sp, #448]
	ldp	x28, x27, [sp, #432]
	add	sp, sp, #464
	ret
LBB27_20:
	.loc	11 0 2 is_stmt 0
	ldr	x9, [sp, #16]
	ldr	x10, [sp, #8]
Ltmp142:
	.loc	11 1775 14 is_stmt 1
	mov	x8, x9
	str	x8, [x10, #120]
	.loc	11 1775 17 is_stmt 0
	add	x8, x9, #1
	str	x8, [x10, #128]
Ltmp143:
	.loc	11 1776 19 is_stmt 1
	ldr	w8, [sp, #52]
	lsr	w8, w8, #6
	.loc	11 1776 18 is_stmt 0
	and	w8, w8, #0x1f
	.loc	11 1776 13
	orr	w8, w8, #0xffffffc0
	strb	w8, [x9]
	.loc	11 1777 18 is_stmt 1
	ldr	w8, [sp, #52]
	and	w8, w8, #0x3f
	.loc	11 1777 13 is_stmt 0
	orr	w8, w8, #0xffffff80
	strb	w8, [x9, #1]
Ltmp144:
	.loc	11 1778 9 is_stmt 1
	b	LBB27_19
LBB27_21:
	.loc	11 0 9 is_stmt 0
	ldr	x9, [sp, #16]
	ldr	x10, [sp, #8]
	.loc	11 1779 14 is_stmt 1
	mov	x8, x9
	str	x8, [x10, #136]
	.loc	11 1779 17 is_stmt 0
	add	x8, x9, #1
	str	x8, [x10, #144]
	.loc	11 1779 20
	add	x8, x9, #2
	str	x8, [x10, #152]
Ltmp145:
	.loc	11 1780 19 is_stmt 1
	ldr	w8, [sp, #52]
	lsr	w8, w8, #12
	.loc	11 1780 18 is_stmt 0
	and	w8, w8, #0xf
	.loc	11 1780 13
	orr	w8, w8, #0xffffffe0
	strb	w8, [x9]
	.loc	11 1781 19 is_stmt 1
	ldr	w8, [sp, #52]
	lsr	w8, w8, #6
	.loc	11 1781 18 is_stmt 0
	and	w8, w8, #0x3f
	mov	w10, #-128
	.loc	11 1781 13
	orr	w8, w8, #0xffffff80
	strb	w8, [x9, #1]
	.loc	11 1782 18 is_stmt 1
	ldr	w8, [sp, #52]
	and	w8, w8, #0x3f
	.loc	11 1782 13 is_stmt 0
	orr	w8, w8, w10
	strb	w8, [x9, #2]
Ltmp146:
	.loc	11 1783 9 is_stmt 1
	b	LBB27_19
LBB27_22:
	.loc	11 0 9 is_stmt 0
	ldr	x9, [sp, #16]
	ldr	x10, [sp, #8]
	.loc	11 1784 14 is_stmt 1
	mov	x8, x9
	str	x8, [x10, #160]
	.loc	11 1784 17 is_stmt 0
	add	x8, x9, #1
	str	x8, [x10, #168]
	.loc	11 1784 20
	add	x8, x9, #2
	str	x8, [x10, #176]
	.loc	11 1784 23
	add	x8, x9, #3
	str	x8, [x10, #184]
Ltmp147:
	.loc	11 1785 19 is_stmt 1
	ldr	w8, [sp, #52]
	lsr	w8, w8, #18
	.loc	11 1785 18 is_stmt 0
	and	w8, w8, #0x7
	.loc	11 1785 13
	orr	w8, w8, #0xfffffff0
	strb	w8, [x9]
	.loc	11 1786 19 is_stmt 1
	ldr	w8, [sp, #52]
	lsr	w8, w8, #12
	.loc	11 1786 18 is_stmt 0
	and	w8, w8, #0x3f
	mov	w10, #-128
	.loc	11 1786 13
	orr	w8, w8, #0xffffff80
	strb	w8, [x9, #1]
	.loc	11 1787 19 is_stmt 1
	ldr	w8, [sp, #52]
	lsr	w8, w8, #6
	.loc	11 1787 18 is_stmt 0
	and	w8, w8, #0x3f
	.loc	11 1787 13
	orr	w8, w8, w10
	strb	w8, [x9, #2]
	.loc	11 1788 18 is_stmt 1
	ldr	w8, [sp, #52]
	and	w8, w8, #0x3f
	.loc	11 1788 13 is_stmt 0
	orr	w8, w8, w10
	strb	w8, [x9, #3]
Ltmp148:
	.loc	11 1789 9 is_stmt 1
	b	LBB27_19
Ltmp149:
Lfunc_end27:
	.cfi_endproc

	.p2align	2
__ZN4core4iter5range101_$LT$impl$u20$core..iter..traits..iterator..Iterator$u20$for$u20$core..ops..range..Range$LT$A$GT$$GT$4next17h349ecb3bd08056a7E:
Lfunc_begin28:
	.loc	8 843 0
	.cfi_startproc
	sub	sp, sp, #32
	stp	x29, x30, [sp, #16]
	add	x29, sp, #16
	.cfi_def_cfa w29, 16
	.cfi_offset w30, -8
	.cfi_offset w29, -16
	mov	x8, x0
	str	x8, [sp, #8]
Ltmp150:
	.loc	8 844 9 prologue_end
	bl	__ZN89_$LT$core..ops..range..Range$LT$T$GT$$u20$as$u20$core..iter..range..RangeIteratorImpl$GT$9spec_next17h5f0edaf80116ee45E
	.loc	8 845 6 epilogue_begin
	ldp	x29, x30, [sp, #16]
	add	sp, sp, #32
	ret
Ltmp151:
Lfunc_end28:
	.cfi_endproc

	.p2align	2
__ZN4core4sync6atomic10AtomicBool21compare_exchange_weak17hf35198d453e8a21aE:
Lfunc_begin29:
	.file	24 "/private/tmp/rust-20240808-9779-6572l6/rustc-1.80.1-src/library/core/src/sync" "atomic.rs"
	.loc	24 858 0
	.cfi_startproc
	sub	sp, sp, #64
	stp	x29, x30, [sp, #48]
	add	x29, sp, #48
	.cfi_def_cfa w29, 16
	.cfi_offset w30, -8
	.cfi_offset w29, -16
	mov	x8, x0
	str	x8, [sp, #16]
	sturb	w1, [x29, #-20]
	sturb	w2, [x29, #-19]
	sturb	w3, [x29, #-18]
	sturb	w4, [x29, #-17]
Ltmp152:
	.loc	24 871 42 prologue_end
	mov	x8, x0
	stur	x8, [x29, #-16]
	.loc	24 871 13 is_stmt 0
	bl	__ZN4core4sync6atomic28atomic_compare_exchange_weak17he9bf5aa1965a0a36E
	and	w8, w0, #0x1
	strb	w8, [sp, #14]
	strb	w1, [sp, #15]
	.loc	24 870 15 is_stmt 1
	ldrb	w8, [sp, #14]
	.loc	24 870 9 is_stmt 0
	tbnz	w8, #0, LBB29_2
	b	LBB29_1
LBB29_1:
	.loc	24 873 16 is_stmt 1
	ldrb	w8, [sp, #15]
	sturb	w8, [x29, #-2]
Ltmp153:
	.loc	24 873 25 is_stmt 0
	subs	w8, w8, #0
	cset	w8, ne
	.loc	24 873 22
	strb	w8, [sp, #13]
	strb	wzr, [sp, #12]
Ltmp154:
	.loc	24 873 31
	b	LBB29_3
LBB29_2:
	.loc	24 874 17 is_stmt 1
	ldrb	w8, [sp, #15]
	sturb	w8, [x29, #-1]
Ltmp155:
	.loc	24 874 27 is_stmt 0
	subs	w8, w8, #0
	cset	w8, ne
	.loc	24 874 23
	strb	w8, [sp, #13]
	mov	w8, #1
	strb	w8, [sp, #12]
Ltmp156:
	.loc	24 874 33
	b	LBB29_3
LBB29_3:
	.loc	24 876 6 is_stmt 1
	ldrb	w8, [sp, #12]
	ldrb	w1, [sp, #13]
	and	w0, w8, #0x1
	.loc	24 876 6 epilogue_begin is_stmt 0
	ldp	x29, x30, [sp, #48]
	add	sp, sp, #64
	ret
Ltmp157:
Lfunc_end29:
	.cfi_endproc

	.p2align	2
__ZN4core4sync6atomic10AtomicBool3new17h0ea381160eceb750E:
Lfunc_begin30:
	.loc	24 412 0 is_stmt 1
	.cfi_startproc
	sub	sp, sp, #16
	.cfi_def_cfa_offset 16
	strb	w0, [sp, #14]
Ltmp159:
	.loc	24 413 41 prologue_end
	strb	w0, [sp, #15]
	.loc	24 413 9 is_stmt 0
	strb	w0, [sp, #13]
	.loc	24 414 6 is_stmt 1
	ldrb	w0, [sp, #13]
	.loc	24 414 6 epilogue_begin is_stmt 0
	add	sp, sp, #16
	ret
Ltmp160:
Lfunc_end30:
	.cfi_endproc

	.p2align	2
__ZN4core4sync6atomic10AtomicBool4load17h747347138efe4928E:
Lfunc_begin31:
	.loc	24 607 0 is_stmt 1
	.cfi_startproc
	sub	sp, sp, #48
	stp	x29, x30, [sp, #32]
	add	x29, sp, #32
	.cfi_def_cfa w29, 16
	.cfi_offset w30, -8
	.cfi_offset w29, -16
	mov	x8, x0
	str	x8, [sp, #8]
	sturb	w1, [x29, #-9]
Ltmp161:
	.loc	24 610 30 prologue_end
	mov	x8, x0
	stur	x8, [x29, #-8]
	.loc	24 610 18 is_stmt 0
	bl	__ZN4core4sync6atomic11atomic_load17h453d0568d874788fE
	ands	w8, w0, #0xff
	cset	w0, ne
	.loc	24 611 6 epilogue_begin is_stmt 1
	ldp	x29, x30, [sp, #32]
	add	sp, sp, #48
	ret
Ltmp162:
Lfunc_end31:
	.cfi_endproc

	.p2align	2
__ZN4core4sync6atomic10AtomicBool5store17hd39608388b0294e8E:
Lfunc_begin32:
	.loc	24 635 0
	.cfi_startproc
	sub	sp, sp, #48
	stp	x29, x30, [sp, #32]
	add	x29, sp, #32
	.cfi_def_cfa w29, 16
	.cfi_offset w30, -8
	.cfi_offset w29, -16
	mov	x8, x0
	str	x8, [sp, #8]
	sturb	w1, [x29, #-10]
	sturb	w2, [x29, #-9]
Ltmp163:
	.loc	24 639 26 prologue_end
	mov	x8, x0
	stur	x8, [x29, #-8]
	.loc	24 639 13 is_stmt 0
	bl	__ZN4core4sync6atomic12atomic_store17h05ee03f0937e3603E
	.loc	24 641 6 epilogue_begin is_stmt 1
	ldp	x29, x30, [sp, #32]
	add	sp, sp, #48
	ret
Ltmp164:
Lfunc_end32:
	.cfi_endproc

	.p2align	2
__ZN4core4sync6atomic11atomic_load17h453d0568d874788fE:
Lfunc_begin33:
	.loc	24 3294 0
	.cfi_startproc
	sub	sp, sp, #160
	stp	x29, x30, [sp, #144]
	add	x29, sp, #144
	.cfi_def_cfa w29, 16
	.cfi_offset w30, -8
	.cfi_offset w29, -16
	str	x0, [sp]
Ltmp165:
	.loc	10 341 44 prologue_end
	adrp	x8, l___unnamed_14@PAGE
	add	x8, x8, l___unnamed_14@PAGEOFF
	str	x8, [sp, #16]
Ltmp166:
	.loc	10 341 44 is_stmt 0
	adrp	x8, l___unnamed_15@PAGE
	add	x8, x8, l___unnamed_15@PAGEOFF
	str	x8, [sp, #24]
	strb	w1, [sp, #38]
	stur	x0, [x29, #-8]
Ltmp167:
	.loc	24 3297 15 is_stmt 1
	ldrb	w8, [sp, #38]
	str	x8, [sp, #8]
	.loc	24 3297 9 is_stmt 0
	cbz	x8, LBB33_6
	b	LBB33_1
LBB33_1:
	.loc	24 0 9
	ldr	x8, [sp, #8]
	.loc	24 3297 9
	subs	x8, x8, #1
	b.eq	LBB33_7
	b	LBB33_2
LBB33_2:
	.loc	24 0 9
	ldr	x8, [sp, #8]
	.loc	24 3297 9
	subs	x8, x8, #2
	b.eq	LBB33_8
	b	LBB33_3
LBB33_3:
	.loc	24 0 9
	ldr	x8, [sp, #8]
	.loc	24 3297 9
	subs	x8, x8, #3
	b.eq	LBB33_9
	b	LBB33_4
LBB33_4:
	b	LBB33_10
LBB33_6:
	.loc	24 0 9
	ldr	x8, [sp]
	.loc	24 3298 24 is_stmt 1
	ldrb	w8, [x8]
	strb	w8, [sp, #39]
	b	LBB33_11
LBB33_7:
	.loc	24 0 24 is_stmt 0
	add	x0, sp, #40
Ltmp168:
	.loc	10 343 9 is_stmt 1
	adrp	x8, l___unnamed_15@PAGE
	add	x8, x8, l___unnamed_15@PAGEOFF
	str	x8, [sp, #40]
	mov	w8, #1
	str	x8, [sp, #48]
	adrp	x8, l___unnamed_4@PAGE
	adrp	x9, l___unnamed_4@PAGE
	add	x9, x9, l___unnamed_4@PAGEOFF
	ldr	x10, [x8, l___unnamed_4@PAGEOFF]
	mov	w8, #8
	ldr	x9, [x9, #8]
	str	x10, [sp, #72]
	str	x9, [sp, #80]
	str	x8, [sp, #56]
	str	xzr, [sp, #64]
Ltmp169:
	.loc	24 3301 24
	adrp	x1, l___unnamed_16@PAGE
	add	x1, x1, l___unnamed_16@PAGEOFF
	bl	__ZN4core9panicking9panic_fmt17h48dfedcd5cf205f7E
LBB33_8:
	.loc	24 0 24 is_stmt 0
	ldr	x8, [sp]
	.loc	24 3299 24 is_stmt 1
	ldaprb	w8, [x8]
	strb	w8, [sp, #39]
	b	LBB33_11
LBB33_9:
	.loc	24 0 24 is_stmt 0
	sub	x0, x29, #56
Ltmp170:
	.loc	10 343 9 is_stmt 1
	adrp	x8, l___unnamed_14@PAGE
	add	x8, x8, l___unnamed_14@PAGEOFF
	stur	x8, [x29, #-56]
	mov	w8, #1
	stur	x8, [x29, #-48]
	adrp	x8, l___unnamed_4@PAGE
	adrp	x9, l___unnamed_4@PAGE
	add	x9, x9, l___unnamed_4@PAGEOFF
	ldr	x10, [x8, l___unnamed_4@PAGEOFF]
	mov	w8, #8
	ldr	x9, [x9, #8]
	stur	x10, [x29, #-24]
	stur	x9, [x29, #-16]
	stur	x8, [x29, #-40]
	stur	xzr, [x29, #-32]
Ltmp171:
	.loc	24 3302 23
	adrp	x1, l___unnamed_17@PAGE
	add	x1, x1, l___unnamed_17@PAGEOFF
	bl	__ZN4core9panicking9panic_fmt17h48dfedcd5cf205f7E
LBB33_10:
	.loc	24 0 23 is_stmt 0
	ldr	x8, [sp]
	.loc	24 3300 23 is_stmt 1
	ldarb	w8, [x8]
	strb	w8, [sp, #39]
	b	LBB33_11
LBB33_11:
	.loc	24 3305 2
	ldrb	w0, [sp, #39]
	.loc	24 3305 2 epilogue_begin is_stmt 0
	ldp	x29, x30, [sp, #144]
	add	sp, sp, #160
	ret
Ltmp172:
Lfunc_end33:
	.cfi_endproc

	.p2align	2
__ZN4core4sync6atomic14spin_loop_hint17hbfdd5f9e0847c47fE:
Lfunc_begin34:
	.loc	24 3765 0 is_stmt 1
	.cfi_startproc
	sub	sp, sp, #16
	.cfi_def_cfa_offset 16
	add	x8, sp, #7
	str	x8, [sp, #8]
Ltmp174:
	.file	25 "/private/tmp/rust-20240808-9779-6572l6/rustc-1.80.1-src/library/core/src/../../stdarch/crates/core_arch/src/arm_shared/barrier" "common.rs"
	.loc	25 14 9 prologue_end
	isb
Ltmp175:
	.loc	24 3767 2 epilogue_begin
	add	sp, sp, #16
	ret
Ltmp176:
Lfunc_end34:
	.cfi_endproc
	.file	26 "/private/tmp/rust-20240808-9779-6572l6/rustc-1.80.1-src/library/core/src/../../stdarch/crates/core_arch/src/arm_shared/barrier" "mod.rs"
	.file	27 "/private/tmp/rust-20240808-9779-6572l6/rustc-1.80.1-src/library/core/src" "hint.rs"

	.p2align	2
__ZN4core4sync6atomic23atomic_compare_exchange17h9a53a50e52d0eb6cE:
Lfunc_begin35:
	.loc	24 3360 0
	.cfi_startproc
	sub	sp, sp, #224
	stp	x29, x30, [sp, #208]
	add	x29, sp, #208
	.cfi_def_cfa w29, 16
	.cfi_offset w30, -8
	.cfi_offset w29, -16
	str	x0, [sp, #48]
	str	w1, [sp, #56]
	str	w2, [sp, #60]
Ltmp177:
	.loc	10 341 44 prologue_end
	adrp	x8, l___unnamed_18@PAGE
	add	x8, x8, l___unnamed_18@PAGEOFF
	str	x8, [sp, #72]
Ltmp178:
	.loc	10 341 44 is_stmt 0
	adrp	x8, l___unnamed_19@PAGE
	add	x8, x8, l___unnamed_19@PAGEOFF
	str	x8, [sp, #80]
	strb	w3, [sp, #90]
	strb	w4, [sp, #91]
	stur	x0, [x29, #-16]
	sturb	w1, [x29, #-4]
	sturb	w2, [x29, #-3]
Ltmp179:
	.loc	24 3369 15 is_stmt 1
	ldrb	w8, [sp, #90]
	str	x8, [sp, #64]
	.loc	24 3369 9 is_stmt 0
	cbz	x8, LBB35_6
	b	LBB35_1
LBB35_1:
	.loc	24 0 9
	ldr	x8, [sp, #64]
	.loc	24 3369 9
	subs	x8, x8, #1
	b.eq	LBB35_9
	b	LBB35_2
LBB35_2:
	.loc	24 0 9
	ldr	x8, [sp, #64]
	.loc	24 3369 9
	subs	x8, x8, #2
	b.eq	LBB35_12
	b	LBB35_3
LBB35_3:
	.loc	24 0 9
	ldr	x8, [sp, #64]
	.loc	24 3369 9
	subs	x8, x8, #3
	b.eq	LBB35_15
	b	LBB35_4
LBB35_4:
	b	LBB35_18
LBB35_6:
	.loc	24 3369 15
	ldrb	w8, [sp, #91]
	str	x8, [sp, #40]
	.loc	24 3369 9
	cbz	x8, LBB35_22
	b	LBB35_7
LBB35_7:
	.loc	24 0 9
	ldr	x8, [sp, #40]
	.loc	24 3369 9
	subs	x8, x8, #2
	b.eq	LBB35_23
	b	LBB35_8
LBB35_8:
	.loc	24 0 9
	ldr	x8, [sp, #40]
	.loc	24 3369 9
	subs	x8, x8, #4
	b.eq	LBB35_24
	b	LBB35_21
LBB35_9:
	.loc	24 3369 15
	ldrb	w8, [sp, #91]
	str	x8, [sp, #32]
	.loc	24 3369 9
	cbz	x8, LBB35_26
	b	LBB35_10
LBB35_10:
	.loc	24 0 9
	ldr	x8, [sp, #32]
	.loc	24 3369 9
	subs	x8, x8, #2
	b.eq	LBB35_27
	b	LBB35_11
LBB35_11:
	.loc	24 0 9
	ldr	x8, [sp, #32]
	.loc	24 3369 9
	subs	x8, x8, #4
	b.eq	LBB35_28
	b	LBB35_21
LBB35_12:
	.loc	24 3369 15
	ldrb	w8, [sp, #91]
	str	x8, [sp, #24]
	.loc	24 3369 9
	cbz	x8, LBB35_29
	b	LBB35_13
LBB35_13:
	.loc	24 0 9
	ldr	x8, [sp, #24]
	.loc	24 3369 9
	subs	x8, x8, #2
	b.eq	LBB35_30
	b	LBB35_14
LBB35_14:
	.loc	24 0 9
	ldr	x8, [sp, #24]
	.loc	24 3369 9
	subs	x8, x8, #4
	b.eq	LBB35_31
	b	LBB35_21
LBB35_15:
	.loc	24 3369 15
	ldrb	w8, [sp, #91]
	str	x8, [sp, #16]
	.loc	24 3369 9
	cbz	x8, LBB35_32
	b	LBB35_16
LBB35_16:
	.loc	24 0 9
	ldr	x8, [sp, #16]
	.loc	24 3369 9
	subs	x8, x8, #2
	b.eq	LBB35_33
	b	LBB35_17
LBB35_17:
	.loc	24 0 9
	ldr	x8, [sp, #16]
	.loc	24 3369 9
	subs	x8, x8, #4
	b.eq	LBB35_34
	b	LBB35_21
LBB35_18:
	.loc	24 3369 15
	ldrb	w8, [sp, #91]
	str	x8, [sp, #8]
	.loc	24 3369 9
	cbz	x8, LBB35_35
	b	LBB35_19
LBB35_19:
	.loc	24 0 9
	ldr	x8, [sp, #8]
	.loc	24 3369 9
	subs	x8, x8, #2
	b.eq	LBB35_36
	b	LBB35_20
LBB35_20:
	.loc	24 0 9
	ldr	x8, [sp, #8]
	.loc	24 3369 9
	subs	x8, x8, #4
	b.eq	LBB35_37
	b	LBB35_21
LBB35_21:
	.loc	24 3369 15
	ldrb	w8, [sp, #91]
	.loc	24 3369 9
	subs	x8, x8, #1
	b.eq	LBB35_41
	b	LBB35_42
LBB35_22:
	.loc	24 0 9
	ldr	w10, [sp, #56]
	ldr	w8, [sp, #60]
	ldr	x11, [sp, #48]
	.loc	24 3370 35 is_stmt 1
	mov	x9, x10
	casb	w9, w8, [x11]
	and	w8, w9, #0xff
	subs	w8, w8, w10, uxtb
	cset	w8, eq
	strb	w9, [sp, #94]
	strb	w8, [sp, #95]
	b	LBB35_25
LBB35_23:
	.loc	24 0 35 is_stmt 0
	ldr	w10, [sp, #56]
	ldr	w8, [sp, #60]
	ldr	x11, [sp, #48]
	.loc	24 3371 35 is_stmt 1
	mov	x9, x10
	casab	w9, w8, [x11]
	and	w8, w9, #0xff
	subs	w8, w8, w10, uxtb
	cset	w8, eq
	strb	w9, [sp, #94]
	strb	w8, [sp, #95]
	b	LBB35_25
LBB35_24:
	.loc	24 0 35 is_stmt 0
	ldr	w10, [sp, #56]
	ldr	w8, [sp, #60]
	ldr	x11, [sp, #48]
	.loc	24 3372 34 is_stmt 1
	mov	x9, x10
	casalb	w9, w8, [x11]
	and	w8, w9, #0xff
	subs	w8, w8, w10, uxtb
	cset	w8, eq
	strb	w9, [sp, #94]
	strb	w8, [sp, #95]
	b	LBB35_25
LBB35_25:
	.loc	24 3368 10
	ldrb	w8, [sp, #94]
	str	w8, [sp, #4]
	sturb	w8, [x29, #-2]
	.loc	24 3368 15 is_stmt 0
	ldrb	w8, [sp, #95]
	mov	w9, #1
	and	w9, w8, w9
	sturb	w9, [x29, #-1]
Ltmp180:
	.loc	24 3389 8 is_stmt 1
	tbnz	w8, #0, LBB35_39
	b	LBB35_38
Ltmp181:
LBB35_26:
	.loc	24 0 8 is_stmt 0
	ldr	w10, [sp, #56]
	ldr	w8, [sp, #60]
	ldr	x11, [sp, #48]
	.loc	24 3376 35 is_stmt 1
	mov	x9, x10
	caslb	w9, w8, [x11]
	and	w8, w9, #0xff
	subs	w8, w8, w10, uxtb
	cset	w8, eq
	strb	w9, [sp, #94]
	strb	w8, [sp, #95]
	b	LBB35_25
LBB35_27:
	.loc	24 0 35 is_stmt 0
	ldr	w10, [sp, #56]
	ldr	w8, [sp, #60]
	ldr	x11, [sp, #48]
	.loc	24 3377 35 is_stmt 1
	mov	x9, x10
	casalb	w9, w8, [x11]
	and	w8, w9, #0xff
	subs	w8, w8, w10, uxtb
	cset	w8, eq
	strb	w9, [sp, #94]
	strb	w8, [sp, #95]
	b	LBB35_25
LBB35_28:
	.loc	24 0 35 is_stmt 0
	ldr	w10, [sp, #56]
	ldr	w8, [sp, #60]
	ldr	x11, [sp, #48]
	.loc	24 3378 34 is_stmt 1
	mov	x9, x10
	casalb	w9, w8, [x11]
	and	w8, w9, #0xff
	subs	w8, w8, w10, uxtb
	cset	w8, eq
	strb	w9, [sp, #94]
	strb	w8, [sp, #95]
	b	LBB35_25
LBB35_29:
	.loc	24 0 34 is_stmt 0
	ldr	w10, [sp, #56]
	ldr	w8, [sp, #60]
	ldr	x11, [sp, #48]
	.loc	24 3373 35 is_stmt 1
	mov	x9, x10
	casab	w9, w8, [x11]
	and	w8, w9, #0xff
	subs	w8, w8, w10, uxtb
	cset	w8, eq
	strb	w9, [sp, #94]
	strb	w8, [sp, #95]
	b	LBB35_25
LBB35_30:
	.loc	24 0 35 is_stmt 0
	ldr	w10, [sp, #56]
	ldr	w8, [sp, #60]
	ldr	x11, [sp, #48]
	.loc	24 3374 35 is_stmt 1
	mov	x9, x10
	casab	w9, w8, [x11]
	and	w8, w9, #0xff
	subs	w8, w8, w10, uxtb
	cset	w8, eq
	strb	w9, [sp, #94]
	strb	w8, [sp, #95]
	b	LBB35_25
LBB35_31:
	.loc	24 0 35 is_stmt 0
	ldr	w10, [sp, #56]
	ldr	w8, [sp, #60]
	ldr	x11, [sp, #48]
	.loc	24 3375 34 is_stmt 1
	mov	x9, x10
	casalb	w9, w8, [x11]
	and	w8, w9, #0xff
	subs	w8, w8, w10, uxtb
	cset	w8, eq
	strb	w9, [sp, #94]
	strb	w8, [sp, #95]
	b	LBB35_25
LBB35_32:
	.loc	24 0 34 is_stmt 0
	ldr	w10, [sp, #56]
	ldr	w8, [sp, #60]
	ldr	x11, [sp, #48]
	.loc	24 3379 34 is_stmt 1
	mov	x9, x10
	casalb	w9, w8, [x11]
	and	w8, w9, #0xff
	subs	w8, w8, w10, uxtb
	cset	w8, eq
	strb	w9, [sp, #94]
	strb	w8, [sp, #95]
	b	LBB35_25
LBB35_33:
	.loc	24 0 34 is_stmt 0
	ldr	w10, [sp, #56]
	ldr	w8, [sp, #60]
	ldr	x11, [sp, #48]
	.loc	24 3380 34 is_stmt 1
	mov	x9, x10
	casalb	w9, w8, [x11]
	and	w8, w9, #0xff
	subs	w8, w8, w10, uxtb
	cset	w8, eq
	strb	w9, [sp, #94]
	strb	w8, [sp, #95]
	b	LBB35_25
LBB35_34:
	.loc	24 0 34 is_stmt 0
	ldr	w10, [sp, #56]
	ldr	w8, [sp, #60]
	ldr	x11, [sp, #48]
	.loc	24 3381 33 is_stmt 1
	mov	x9, x10
	casalb	w9, w8, [x11]
	and	w8, w9, #0xff
	subs	w8, w8, w10, uxtb
	cset	w8, eq
	strb	w9, [sp, #94]
	strb	w8, [sp, #95]
	b	LBB35_25
LBB35_35:
	.loc	24 0 33 is_stmt 0
	ldr	w10, [sp, #56]
	ldr	w8, [sp, #60]
	ldr	x11, [sp, #48]
	.loc	24 3382 34 is_stmt 1
	mov	x9, x10
	casalb	w9, w8, [x11]
	and	w8, w9, #0xff
	subs	w8, w8, w10, uxtb
	cset	w8, eq
	strb	w9, [sp, #94]
	strb	w8, [sp, #95]
	b	LBB35_25
LBB35_36:
	.loc	24 0 34 is_stmt 0
	ldr	w10, [sp, #56]
	ldr	w8, [sp, #60]
	ldr	x11, [sp, #48]
	.loc	24 3383 34 is_stmt 1
	mov	x9, x10
	casalb	w9, w8, [x11]
	and	w8, w9, #0xff
	subs	w8, w8, w10, uxtb
	cset	w8, eq
	strb	w9, [sp, #94]
	strb	w8, [sp, #95]
	b	LBB35_25
LBB35_37:
	.loc	24 0 34 is_stmt 0
	ldr	w10, [sp, #56]
	ldr	w8, [sp, #60]
	ldr	x11, [sp, #48]
	.loc	24 3384 33 is_stmt 1
	mov	x9, x10
	casalb	w9, w8, [x11]
	and	w8, w9, #0xff
	subs	w8, w8, w10, uxtb
	cset	w8, eq
	strb	w9, [sp, #94]
	strb	w8, [sp, #95]
	b	LBB35_25
LBB35_38:
	.loc	24 0 33 is_stmt 0
	ldr	w8, [sp, #4]
Ltmp182:
	.loc	24 3389 30 is_stmt 1
	strb	w8, [sp, #93]
	mov	w8, #1
	strb	w8, [sp, #92]
	.loc	24 3389 5 is_stmt 0
	b	LBB35_40
LBB35_39:
	.loc	24 0 5
	ldr	w8, [sp, #4]
	.loc	24 3389 13
	strb	w8, [sp, #93]
	strb	wzr, [sp, #92]
	.loc	24 3389 5
	b	LBB35_40
Ltmp183:
LBB35_40:
	.loc	24 3390 2 is_stmt 1
	ldrb	w8, [sp, #92]
	ldrb	w1, [sp, #93]
	and	w0, w8, #0x1
	.loc	24 3390 2 epilogue_begin is_stmt 0
	ldp	x29, x30, [sp, #208]
	add	sp, sp, #224
	ret
LBB35_41:
	.loc	24 0 2
	sub	x0, x29, #64
Ltmp184:
	.loc	10 343 9 is_stmt 1
	adrp	x8, l___unnamed_18@PAGE
	add	x8, x8, l___unnamed_18@PAGEOFF
	stur	x8, [x29, #-64]
	mov	w8, #1
	stur	x8, [x29, #-56]
	adrp	x8, l___unnamed_4@PAGE
	adrp	x9, l___unnamed_4@PAGE
	add	x9, x9, l___unnamed_4@PAGEOFF
	ldr	x10, [x8, l___unnamed_4@PAGEOFF]
	mov	w8, #8
	ldr	x9, [x9, #8]
	stur	x10, [x29, #-32]
	stur	x9, [x29, #-24]
	stur	x8, [x29, #-48]
	stur	xzr, [x29, #-40]
Ltmp185:
	.loc	24 3386 29
	adrp	x1, l___unnamed_20@PAGE
	add	x1, x1, l___unnamed_20@PAGEOFF
	bl	__ZN4core9panicking9panic_fmt17h48dfedcd5cf205f7E
LBB35_42:
	.loc	24 0 29 is_stmt 0
	add	x0, sp, #96
Ltmp186:
	.loc	10 343 9 is_stmt 1
	adrp	x8, l___unnamed_19@PAGE
	add	x8, x8, l___unnamed_19@PAGEOFF
	str	x8, [sp, #96]
	mov	w8, #1
	str	x8, [sp, #104]
	adrp	x8, l___unnamed_4@PAGE
	adrp	x9, l___unnamed_4@PAGE
	add	x9, x9, l___unnamed_4@PAGEOFF
	ldr	x10, [x8, l___unnamed_4@PAGEOFF]
	mov	w8, #8
	ldr	x9, [x9, #8]
	str	x10, [sp, #128]
	str	x9, [sp, #136]
	str	x8, [sp, #112]
	str	xzr, [sp, #120]
Ltmp187:
	.loc	24 3385 28
	adrp	x1, l___unnamed_21@PAGE
	add	x1, x1, l___unnamed_21@PAGEOFF
	bl	__ZN4core9panicking9panic_fmt17h48dfedcd5cf205f7E
Ltmp188:
Lfunc_end35:
	.cfi_endproc

	.p2align	2
__ZN4core4sync6atomic28atomic_compare_exchange_weak17he9bf5aa1965a0a36E:
Lfunc_begin36:
	.loc	24 3395 0
	.cfi_startproc
	sub	sp, sp, #224
	stp	x29, x30, [sp, #208]
	add	x29, sp, #208
	.cfi_def_cfa w29, 16
	.cfi_offset w30, -8
	.cfi_offset w29, -16
	str	x0, [sp, #48]
	str	w1, [sp, #56]
	str	w2, [sp, #60]
Ltmp189:
	.loc	10 341 44 prologue_end
	adrp	x8, l___unnamed_18@PAGE
	add	x8, x8, l___unnamed_18@PAGEOFF
	str	x8, [sp, #72]
Ltmp190:
	.loc	10 341 44 is_stmt 0
	adrp	x8, l___unnamed_19@PAGE
	add	x8, x8, l___unnamed_19@PAGEOFF
	str	x8, [sp, #80]
	strb	w3, [sp, #90]
	strb	w4, [sp, #91]
	stur	x0, [x29, #-16]
	sturb	w1, [x29, #-4]
	sturb	w2, [x29, #-3]
Ltmp191:
	.loc	24 3404 15 is_stmt 1
	ldrb	w8, [sp, #90]
	str	x8, [sp, #64]
	.loc	24 3404 9 is_stmt 0
	cbz	x8, LBB36_6
	b	LBB36_1
LBB36_1:
	.loc	24 0 9
	ldr	x8, [sp, #64]
	.loc	24 3404 9
	subs	x8, x8, #1
	b.eq	LBB36_9
	b	LBB36_2
LBB36_2:
	.loc	24 0 9
	ldr	x8, [sp, #64]
	.loc	24 3404 9
	subs	x8, x8, #2
	b.eq	LBB36_12
	b	LBB36_3
LBB36_3:
	.loc	24 0 9
	ldr	x8, [sp, #64]
	.loc	24 3404 9
	subs	x8, x8, #3
	b.eq	LBB36_15
	b	LBB36_4
LBB36_4:
	b	LBB36_18
LBB36_6:
	.loc	24 3404 15
	ldrb	w8, [sp, #91]
	str	x8, [sp, #40]
	.loc	24 3404 9
	cbz	x8, LBB36_22
	b	LBB36_7
LBB36_7:
	.loc	24 0 9
	ldr	x8, [sp, #40]
	.loc	24 3404 9
	subs	x8, x8, #2
	b.eq	LBB36_23
	b	LBB36_8
LBB36_8:
	.loc	24 0 9
	ldr	x8, [sp, #40]
	.loc	24 3404 9
	subs	x8, x8, #4
	b.eq	LBB36_24
	b	LBB36_21
LBB36_9:
	.loc	24 3404 15
	ldrb	w8, [sp, #91]
	str	x8, [sp, #32]
	.loc	24 3404 9
	cbz	x8, LBB36_26
	b	LBB36_10
LBB36_10:
	.loc	24 0 9
	ldr	x8, [sp, #32]
	.loc	24 3404 9
	subs	x8, x8, #2
	b.eq	LBB36_27
	b	LBB36_11
LBB36_11:
	.loc	24 0 9
	ldr	x8, [sp, #32]
	.loc	24 3404 9
	subs	x8, x8, #4
	b.eq	LBB36_28
	b	LBB36_21
LBB36_12:
	.loc	24 3404 15
	ldrb	w8, [sp, #91]
	str	x8, [sp, #24]
	.loc	24 3404 9
	cbz	x8, LBB36_29
	b	LBB36_13
LBB36_13:
	.loc	24 0 9
	ldr	x8, [sp, #24]
	.loc	24 3404 9
	subs	x8, x8, #2
	b.eq	LBB36_30
	b	LBB36_14
LBB36_14:
	.loc	24 0 9
	ldr	x8, [sp, #24]
	.loc	24 3404 9
	subs	x8, x8, #4
	b.eq	LBB36_31
	b	LBB36_21
LBB36_15:
	.loc	24 3404 15
	ldrb	w8, [sp, #91]
	str	x8, [sp, #16]
	.loc	24 3404 9
	cbz	x8, LBB36_32
	b	LBB36_16
LBB36_16:
	.loc	24 0 9
	ldr	x8, [sp, #16]
	.loc	24 3404 9
	subs	x8, x8, #2
	b.eq	LBB36_33
	b	LBB36_17
LBB36_17:
	.loc	24 0 9
	ldr	x8, [sp, #16]
	.loc	24 3404 9
	subs	x8, x8, #4
	b.eq	LBB36_34
	b	LBB36_21
LBB36_18:
	.loc	24 3404 15
	ldrb	w8, [sp, #91]
	str	x8, [sp, #8]
	.loc	24 3404 9
	cbz	x8, LBB36_35
	b	LBB36_19
LBB36_19:
	.loc	24 0 9
	ldr	x8, [sp, #8]
	.loc	24 3404 9
	subs	x8, x8, #2
	b.eq	LBB36_36
	b	LBB36_20
LBB36_20:
	.loc	24 0 9
	ldr	x8, [sp, #8]
	.loc	24 3404 9
	subs	x8, x8, #4
	b.eq	LBB36_37
	b	LBB36_21
LBB36_21:
	.loc	24 3404 15
	ldrb	w8, [sp, #91]
	.loc	24 3404 9
	subs	x8, x8, #1
	b.eq	LBB36_41
	b	LBB36_42
LBB36_22:
	.loc	24 0 9
	ldr	w10, [sp, #56]
	ldr	w8, [sp, #60]
	ldr	x11, [sp, #48]
	.loc	24 3405 35 is_stmt 1
	mov	x9, x10
	casb	w9, w8, [x11]
	and	w8, w9, #0xff
	subs	w8, w8, w10, uxtb
	cset	w8, eq
	strb	w9, [sp, #94]
	strb	w8, [sp, #95]
	b	LBB36_25
LBB36_23:
	.loc	24 0 35 is_stmt 0
	ldr	w10, [sp, #56]
	ldr	w8, [sp, #60]
	ldr	x11, [sp, #48]
	.loc	24 3406 35 is_stmt 1
	mov	x9, x10
	casab	w9, w8, [x11]
	and	w8, w9, #0xff
	subs	w8, w8, w10, uxtb
	cset	w8, eq
	strb	w9, [sp, #94]
	strb	w8, [sp, #95]
	b	LBB36_25
LBB36_24:
	.loc	24 0 35 is_stmt 0
	ldr	w10, [sp, #56]
	ldr	w8, [sp, #60]
	ldr	x11, [sp, #48]
	.loc	24 3407 34 is_stmt 1
	mov	x9, x10
	casalb	w9, w8, [x11]
	and	w8, w9, #0xff
	subs	w8, w8, w10, uxtb
	cset	w8, eq
	strb	w9, [sp, #94]
	strb	w8, [sp, #95]
	b	LBB36_25
LBB36_25:
	.loc	24 3403 10
	ldrb	w8, [sp, #94]
	str	w8, [sp, #4]
	sturb	w8, [x29, #-2]
	.loc	24 3403 15 is_stmt 0
	ldrb	w8, [sp, #95]
	mov	w9, #1
	and	w9, w8, w9
	sturb	w9, [x29, #-1]
Ltmp192:
	.loc	24 3424 8 is_stmt 1
	tbnz	w8, #0, LBB36_39
	b	LBB36_38
Ltmp193:
LBB36_26:
	.loc	24 0 8 is_stmt 0
	ldr	w10, [sp, #56]
	ldr	w8, [sp, #60]
	ldr	x11, [sp, #48]
	.loc	24 3411 35 is_stmt 1
	mov	x9, x10
	caslb	w9, w8, [x11]
	and	w8, w9, #0xff
	subs	w8, w8, w10, uxtb
	cset	w8, eq
	strb	w9, [sp, #94]
	strb	w8, [sp, #95]
	b	LBB36_25
LBB36_27:
	.loc	24 0 35 is_stmt 0
	ldr	w10, [sp, #56]
	ldr	w8, [sp, #60]
	ldr	x11, [sp, #48]
	.loc	24 3412 35 is_stmt 1
	mov	x9, x10
	casalb	w9, w8, [x11]
	and	w8, w9, #0xff
	subs	w8, w8, w10, uxtb
	cset	w8, eq
	strb	w9, [sp, #94]
	strb	w8, [sp, #95]
	b	LBB36_25
LBB36_28:
	.loc	24 0 35 is_stmt 0
	ldr	w10, [sp, #56]
	ldr	w8, [sp, #60]
	ldr	x11, [sp, #48]
	.loc	24 3413 34 is_stmt 1
	mov	x9, x10
	casalb	w9, w8, [x11]
	and	w8, w9, #0xff
	subs	w8, w8, w10, uxtb
	cset	w8, eq
	strb	w9, [sp, #94]
	strb	w8, [sp, #95]
	b	LBB36_25
LBB36_29:
	.loc	24 0 34 is_stmt 0
	ldr	w10, [sp, #56]
	ldr	w8, [sp, #60]
	ldr	x11, [sp, #48]
	.loc	24 3408 35 is_stmt 1
	mov	x9, x10
	casab	w9, w8, [x11]
	and	w8, w9, #0xff
	subs	w8, w8, w10, uxtb
	cset	w8, eq
	strb	w9, [sp, #94]
	strb	w8, [sp, #95]
	b	LBB36_25
LBB36_30:
	.loc	24 0 35 is_stmt 0
	ldr	w10, [sp, #56]
	ldr	w8, [sp, #60]
	ldr	x11, [sp, #48]
	.loc	24 3409 35 is_stmt 1
	mov	x9, x10
	casab	w9, w8, [x11]
	and	w8, w9, #0xff
	subs	w8, w8, w10, uxtb
	cset	w8, eq
	strb	w9, [sp, #94]
	strb	w8, [sp, #95]
	b	LBB36_25
LBB36_31:
	.loc	24 0 35 is_stmt 0
	ldr	w10, [sp, #56]
	ldr	w8, [sp, #60]
	ldr	x11, [sp, #48]
	.loc	24 3410 34 is_stmt 1
	mov	x9, x10
	casalb	w9, w8, [x11]
	and	w8, w9, #0xff
	subs	w8, w8, w10, uxtb
	cset	w8, eq
	strb	w9, [sp, #94]
	strb	w8, [sp, #95]
	b	LBB36_25
LBB36_32:
	.loc	24 0 34 is_stmt 0
	ldr	w10, [sp, #56]
	ldr	w8, [sp, #60]
	ldr	x11, [sp, #48]
	.loc	24 3414 34 is_stmt 1
	mov	x9, x10
	casalb	w9, w8, [x11]
	and	w8, w9, #0xff
	subs	w8, w8, w10, uxtb
	cset	w8, eq
	strb	w9, [sp, #94]
	strb	w8, [sp, #95]
	b	LBB36_25
LBB36_33:
	.loc	24 0 34 is_stmt 0
	ldr	w10, [sp, #56]
	ldr	w8, [sp, #60]
	ldr	x11, [sp, #48]
	.loc	24 3415 34 is_stmt 1
	mov	x9, x10
	casalb	w9, w8, [x11]
	and	w8, w9, #0xff
	subs	w8, w8, w10, uxtb
	cset	w8, eq
	strb	w9, [sp, #94]
	strb	w8, [sp, #95]
	b	LBB36_25
LBB36_34:
	.loc	24 0 34 is_stmt 0
	ldr	w10, [sp, #56]
	ldr	w8, [sp, #60]
	ldr	x11, [sp, #48]
	.loc	24 3416 33 is_stmt 1
	mov	x9, x10
	casalb	w9, w8, [x11]
	and	w8, w9, #0xff
	subs	w8, w8, w10, uxtb
	cset	w8, eq
	strb	w9, [sp, #94]
	strb	w8, [sp, #95]
	b	LBB36_25
LBB36_35:
	.loc	24 0 33 is_stmt 0
	ldr	w10, [sp, #56]
	ldr	w8, [sp, #60]
	ldr	x11, [sp, #48]
	.loc	24 3417 34 is_stmt 1
	mov	x9, x10
	casalb	w9, w8, [x11]
	and	w8, w9, #0xff
	subs	w8, w8, w10, uxtb
	cset	w8, eq
	strb	w9, [sp, #94]
	strb	w8, [sp, #95]
	b	LBB36_25
LBB36_36:
	.loc	24 0 34 is_stmt 0
	ldr	w10, [sp, #56]
	ldr	w8, [sp, #60]
	ldr	x11, [sp, #48]
	.loc	24 3418 34 is_stmt 1
	mov	x9, x10
	casalb	w9, w8, [x11]
	and	w8, w9, #0xff
	subs	w8, w8, w10, uxtb
	cset	w8, eq
	strb	w9, [sp, #94]
	strb	w8, [sp, #95]
	b	LBB36_25
LBB36_37:
	.loc	24 0 34 is_stmt 0
	ldr	w10, [sp, #56]
	ldr	w8, [sp, #60]
	ldr	x11, [sp, #48]
	.loc	24 3419 33 is_stmt 1
	mov	x9, x10
	casalb	w9, w8, [x11]
	and	w8, w9, #0xff
	subs	w8, w8, w10, uxtb
	cset	w8, eq
	strb	w9, [sp, #94]
	strb	w8, [sp, #95]
	b	LBB36_25
LBB36_38:
	.loc	24 0 33 is_stmt 0
	ldr	w8, [sp, #4]
Ltmp194:
	.loc	24 3424 30 is_stmt 1
	strb	w8, [sp, #93]
	mov	w8, #1
	strb	w8, [sp, #92]
	.loc	24 3424 5 is_stmt 0
	b	LBB36_40
LBB36_39:
	.loc	24 0 5
	ldr	w8, [sp, #4]
	.loc	24 3424 13
	strb	w8, [sp, #93]
	strb	wzr, [sp, #92]
	.loc	24 3424 5
	b	LBB36_40
Ltmp195:
LBB36_40:
	.loc	24 3425 2 is_stmt 1
	ldrb	w8, [sp, #92]
	ldrb	w1, [sp, #93]
	and	w0, w8, #0x1
	.loc	24 3425 2 epilogue_begin is_stmt 0
	ldp	x29, x30, [sp, #208]
	add	sp, sp, #224
	ret
LBB36_41:
	.loc	24 0 2
	sub	x0, x29, #64
Ltmp196:
	.loc	10 343 9 is_stmt 1
	adrp	x8, l___unnamed_18@PAGE
	add	x8, x8, l___unnamed_18@PAGEOFF
	stur	x8, [x29, #-64]
	mov	w8, #1
	stur	x8, [x29, #-56]
	adrp	x8, l___unnamed_4@PAGE
	adrp	x9, l___unnamed_4@PAGE
	add	x9, x9, l___unnamed_4@PAGEOFF
	ldr	x10, [x8, l___unnamed_4@PAGEOFF]
	mov	w8, #8
	ldr	x9, [x9, #8]
	stur	x10, [x29, #-32]
	stur	x9, [x29, #-24]
	stur	x8, [x29, #-48]
	stur	xzr, [x29, #-40]
Ltmp197:
	.loc	24 3421 29
	adrp	x1, l___unnamed_22@PAGE
	add	x1, x1, l___unnamed_22@PAGEOFF
	bl	__ZN4core9panicking9panic_fmt17h48dfedcd5cf205f7E
LBB36_42:
	.loc	24 0 29 is_stmt 0
	add	x0, sp, #96
Ltmp198:
	.loc	10 343 9 is_stmt 1
	adrp	x8, l___unnamed_19@PAGE
	add	x8, x8, l___unnamed_19@PAGEOFF
	str	x8, [sp, #96]
	mov	w8, #1
	str	x8, [sp, #104]
	adrp	x8, l___unnamed_4@PAGE
	adrp	x9, l___unnamed_4@PAGE
	add	x9, x9, l___unnamed_4@PAGEOFF
	ldr	x10, [x8, l___unnamed_4@PAGEOFF]
	mov	w8, #8
	ldr	x9, [x9, #8]
	str	x10, [sp, #128]
	str	x9, [sp, #136]
	str	x8, [sp, #112]
	str	xzr, [sp, #120]
Ltmp199:
	.loc	24 3420 28
	adrp	x1, l___unnamed_23@PAGE
	add	x1, x1, l___unnamed_23@PAGEOFF
	bl	__ZN4core9panicking9panic_fmt17h48dfedcd5cf205f7E
Ltmp200:
Lfunc_end36:
	.cfi_endproc

	.p2align	2
__ZN4core4sync6atomic8AtomicU816compare_exchange17he2f8f568e88adc84E:
Lfunc_begin37:
	.loc	24 2571 0
	.cfi_startproc
	sub	sp, sp, #48
	stp	x29, x30, [sp, #32]
	add	x29, sp, #32
	.cfi_def_cfa w29, 16
	.cfi_offset w30, -8
	.cfi_offset w29, -16
	mov	x8, x0
	str	x8, [sp, #8]
	sturb	w1, [x29, #-12]
	sturb	w2, [x29, #-11]
	sturb	w3, [x29, #-10]
	sturb	w4, [x29, #-9]
Ltmp201:
	.loc	24 2577 50 prologue_end
	mov	x8, x0
	stur	x8, [x29, #-8]
	.loc	24 2577 26 is_stmt 0
	bl	__ZN4core4sync6atomic23atomic_compare_exchange17h9a53a50e52d0eb6cE
	.loc	24 2578 14 is_stmt 1
	and	w0, w0, #0x1
	.loc	24 2578 14 epilogue_begin is_stmt 0
	ldp	x29, x30, [sp, #32]
	add	sp, sp, #48
	ret
Ltmp202:
Lfunc_end37:
	.cfi_endproc

	.p2align	2
__ZN4core4sync6atomic8AtomicU84load17hdc89021f4f7f0594E:
Lfunc_begin38:
	.loc	24 2404 0 is_stmt 1
	.cfi_startproc
	sub	sp, sp, #48
	stp	x29, x30, [sp, #32]
	add	x29, sp, #32
	.cfi_def_cfa w29, 16
	.cfi_offset w30, -8
	.cfi_offset w29, -16
	mov	x8, x0
	str	x8, [sp, #8]
	sturb	w1, [x29, #-9]
Ltmp203:
	.loc	24 2406 38 prologue_end
	mov	x8, x0
	stur	x8, [x29, #-8]
	.loc	24 2406 26 is_stmt 0
	bl	__ZN4core4sync6atomic11atomic_load17h453d0568d874788fE
	.loc	24 2407 14 epilogue_begin is_stmt 1
	ldp	x29, x30, [sp, #32]
	add	sp, sp, #48
	ret
Ltmp204:
Lfunc_end38:
	.cfi_endproc

	.p2align	2
__ZN4core4sync6atomic8AtomicU85store17h7d3141d1b6beb73fE:
Lfunc_begin39:
	.loc	24 2431 0
	.cfi_startproc
	sub	sp, sp, #48
	stp	x29, x30, [sp, #32]
	add	x29, sp, #32
	.cfi_def_cfa w29, 16
	.cfi_offset w30, -8
	.cfi_offset w29, -16
	mov	x8, x0
	str	x8, [sp, #8]
	sturb	w1, [x29, #-10]
	sturb	w2, [x29, #-9]
Ltmp205:
	.loc	24 2433 39 prologue_end
	mov	x8, x0
	stur	x8, [x29, #-8]
	.loc	24 2433 26 is_stmt 0
	bl	__ZN4core4sync6atomic12atomic_store17h05ee03f0937e3603E
	.loc	24 2434 14 epilogue_begin is_stmt 1
	ldp	x29, x30, [sp, #32]
	add	sp, sp, #48
	ret
Ltmp206:
Lfunc_end39:
	.cfi_endproc

	.p2align	2
__ZN4core4sync6atomic8AtomicU87get_mut17hb6cc5567aefabdd0E:
Lfunc_begin40:
	.loc	24 2258 0
	.cfi_startproc
	sub	sp, sp, #16
	.cfi_def_cfa_offset 16
	mov	x8, x0
	str	x8, [sp]
Ltmp208:
	.loc	24 2259 17 prologue_end
	mov	x8, x0
	str	x8, [sp, #8]
	.loc	24 2260 14 epilogue_begin
	add	sp, sp, #16
	ret
Ltmp209:
Lfunc_end40:
	.cfi_endproc

	.p2align	2
__ZN4core6result19Result$LT$T$C$E$GT$6is_err17hd5f3051d7b0e7692E:
Lfunc_begin41:
	.file	28 "/private/tmp/rust-20240808-9779-6572l6/rustc-1.80.1-src/library/core/src" "result.rs"
	.loc	28 606 0
	.cfi_startproc
	sub	sp, sp, #16
	.cfi_def_cfa_offset 16
	mov	x8, x0
	str	x8, [sp, #8]
Ltmp211:
	.loc	28 564 18 prologue_end
	ldrb	w8, [x0]
	.loc	12 457 9
	tbnz	w8, #0, LBB41_2
	b	LBB41_1
LBB41_1:
	.loc	12 458 39
	mov	w8, #1
	strb	w8, [sp, #7]
	b	LBB41_3
LBB41_2:
	.loc	12 459 18
	strb	wzr, [sp, #7]
	b	LBB41_3
Ltmp212:
LBB41_3:
	.loc	28 607 9
	ldrb	w8, [sp, #7]
	eor	w8, w8, #0x1
	.loc	28 608 6
	and	w0, w8, #0x1
	.loc	28 608 6 epilogue_begin is_stmt 0
	add	sp, sp, #16
	ret
Ltmp213:
Lfunc_end41:
	.cfi_endproc

	.p2align	2
__ZN4spin4lazy21Lazy$LT$T$C$F$C$R$GT$5force17hc088345acfbee302E:
Lfunc_begin42:
	.file	29 "/Users/yangzhenxun/.cargo/registry/src/index.crates.io-6f17d22bba15001f/spin-0.9.8/src" "lazy.rs"
	.loc	29 97 0 is_stmt 1
	.cfi_startproc
	sub	sp, sp, #32
	stp	x29, x30, [sp, #16]
	add	x29, sp, #16
	.cfi_def_cfa w29, 16
	.cfi_offset w30, -8
	.cfi_offset w29, -16
	add	x1, sp, #8
	str	x0, [sp, #8]
Ltmp214:
	.loc	29 98 9 prologue_end
	ldr	x0, [sp, #8]
	bl	__ZN4spin4once17Once$LT$T$C$R$GT$9call_once17h9a68c2e262f80451E
	.loc	29 102 6 epilogue_begin
	ldp	x29, x30, [sp, #16]
	add	sp, sp, #32
	ret
Ltmp215:
Lfunc_end42:
	.cfi_endproc

	.p2align	2
__ZN4spin4lazy21Lazy$LT$T$C$F$C$R$GT$5force28_$u7b$$u7b$closure$u7d$$u7d$17h29ac81b851b00642E:
Lfunc_begin43:
	.loc	29 98 0
	.cfi_startproc
	sub	sp, sp, #48
	stp	x29, x30, [sp, #32]
	add	x29, sp, #32
	.cfi_def_cfa w29, 16
	.cfi_offset w30, -8
	.cfi_offset w29, -16
	str	x8, [sp]
	str	x0, [sp, #8]
Ltmp216:
	.loc	29 98 38 prologue_end
	ldr	x8, [sp, #8]
	ldr	x8, [x8]
	add	x0, x8, #40
	bl	__ZN4core4cell13Cell$LT$T$GT$4take17ha6cccf8dbea63aa3E
	str	x0, [sp, #16]
	ldr	x8, [sp, #16]
	subs	x8, x8, #0
	cset	x8, ne
	.loc	29 98 32 is_stmt 0
	cbnz	x8, LBB43_2
	b	LBB43_1
LBB43_1:
	.loc	29 100 21 is_stmt 1
	adrp	x0, l___unnamed_24@PAGE
	add	x0, x0, l___unnamed_24@PAGEOFF
	mov	w8, #42
	mov	x1, x8
	adrp	x2, l___unnamed_25@PAGE
	add	x2, x2, l___unnamed_25@PAGEOFF
	bl	__ZN4core9panicking5panic17h231f56423bbc3dfcE
LBB43_2:
	.loc	29 0 21 is_stmt 0
	ldr	x8, [sp]
	.loc	29 99 18 is_stmt 1
	ldr	x0, [sp, #16]
	stur	x0, [x29, #-8]
Ltmp217:
	.loc	29 99 24 is_stmt 0
	bl	__ZN4core3ops8function6FnOnce9call_once17hff93a0b248ea17bfE
Ltmp218:
	.loc	29 101 10 epilogue_begin is_stmt 1
	ldp	x29, x30, [sp, #32]
	add	sp, sp, #48
	ret
Ltmp219:
Lfunc_end43:
	.cfi_endproc

	.p2align	2
__ZN4spin4once17Once$LT$T$C$R$GT$13try_call_once17hbf5cd29b16103d7fE:
Lfunc_begin44:
	.file	30 "/Users/yangzhenxun/.cargo/registry/src/index.crates.io-6f17d22bba15001f/spin-0.9.8/src" "once.rs"
	.loc	30 208 0
	.cfi_startproc
	sub	sp, sp, #80
	stp	x29, x30, [sp, #64]
	add	x29, sp, #64
	.cfi_def_cfa w29, 16
	.cfi_offset w30, -8
	.cfi_offset w29, -16
	str	x0, [sp]
	str	x1, [sp, #8]
	mov	x8, x0
	stur	x8, [x29, #-24]
	stur	x1, [x29, #-16]
Ltmp220:
	.loc	30 209 30 prologue_end
	sturb	wzr, [x29, #-25]
	mov	w8, #1
	sturb	w8, [x29, #-25]
	bl	__ZN4spin4once17Once$LT$T$C$R$GT$3get17h351b90f3c8b33050E
	str	x0, [sp, #24]
	.loc	30 209 16 is_stmt 0
	ldr	x8, [sp, #24]
	subs	x8, x8, #0
	cset	x8, ne
	subs	x8, x8, #1
	b.ne	LBB44_2
	b	LBB44_1
LBB44_1:
	.loc	30 209 21
	ldr	x8, [sp, #24]
	stur	x8, [x29, #-8]
	.loc	30 210 13 is_stmt 1
	str	x8, [sp, #16]
Ltmp221:
	.loc	30 209 9
	b	LBB44_3
LBB44_2:
	.loc	30 0 9 is_stmt 0
	ldr	x1, [sp, #8]
	ldr	x0, [sp]
	.loc	30 212 37 is_stmt 1
	sturb	wzr, [x29, #-25]
	.loc	30 212 13 is_stmt 0
	bl	__ZN4spin4once17Once$LT$T$C$R$GT$18try_call_once_slow17h8f36bcfe6eae0de3E
	str	x0, [sp, #16]
	b	LBB44_3
LBB44_3:
	.loc	30 214 5 is_stmt 1
	ldurb	w8, [x29, #-25]
	tbnz	w8, #0, LBB44_5
	b	LBB44_4
LBB44_4:
	.loc	30 214 6 is_stmt 0
	ldr	x0, [sp, #16]
	.loc	30 214 6 epilogue_begin
	ldp	x29, x30, [sp, #64]
	add	sp, sp, #80
	ret
LBB44_5:
	.loc	30 214 5
	b	LBB44_4
Ltmp222:
Lfunc_end44:
	.cfi_endproc

	.p2align	2
__ZN4spin4once17Once$LT$T$C$R$GT$18try_call_once_slow17h8f36bcfe6eae0de3E:
Lfunc_begin45:
	.loc	30 217 0 is_stmt 1
	.cfi_startproc
	sub	sp, sp, #288
	stp	x28, x27, [sp, #256]
	stp	x29, x30, [sp, #272]
	add	x29, sp, #272
	.cfi_def_cfa w29, 16
	.cfi_offset w30, -8
	.cfi_offset w29, -16
	.cfi_offset w27, -24
	.cfi_offset w28, -32
	str	x0, [sp, #24]
	str	x1, [sp, #32]
	str	x0, [sp, #136]
	stur	x1, [x29, #-128]
Ltmp223:
	.loc	30 218 9 prologue_end
	strb	wzr, [sp, #135]
	mov	w8, #1
	strb	w8, [sp, #135]
	b	LBB45_1
LBB45_1:
	.loc	30 0 9 is_stmt 0
	ldr	x8, [sp, #24]
	.loc	30 219 24 is_stmt 1
	add	x0, x8, #32
	.loc	30 220 17
	strb	wzr, [sp, #52]
	.loc	30 0 0 is_stmt 0
	mov	w8, #1
	.loc	30 221 17 is_stmt 1
	strb	w8, [sp, #53]
	mov	w8, #2
	.loc	30 222 17
	strb	w8, [sp, #54]
	.loc	30 223 17
	strb	w8, [sp, #55]
	.loc	30 219 24
	ldrb	w9, [sp, #52]
	ldrb	w8, [sp, #53]
	ldrb	w3, [sp, #54]
	ldrb	w4, [sp, #55]
	sturb	w9, [x29, #-70]
	sturb	w8, [x29, #-69]
	mov	x8, x0
	stur	x8, [x29, #-64]
	sturb	w3, [x29, #-53]
	sturb	w4, [x29, #-52]
Ltmp224:
	.loc	30 114 35
	ldurb	w1, [x29, #-70]
	.loc	30 114 46 is_stmt 0
	ldurb	w2, [x29, #-69]
	.loc	30 112 19 is_stmt 1
	bl	__ZN4core4sync6atomic8AtomicU816compare_exchange17he2f8f568e88adc84E
	and	w8, w0, #0x1
	sturb	w8, [x29, #-66]
	sturb	w1, [x29, #-65]
	ldurb	w8, [x29, #-66]
	.loc	30 112 13 is_stmt 0
	tbnz	w8, #0, LBB45_3
	b	LBB45_2
LBB45_2:
	.loc	30 119 20 is_stmt 1
	ldurb	w0, [x29, #-65]
	sturb	w0, [x29, #-51]
Ltmp225:
	.loc	30 119 39 is_stmt 0
	bl	__ZN4spin4once6status6Status13new_unchecked17h401816ce571b485aE
	.loc	30 119 27
	sturb	w0, [x29, #-67]
	sturb	wzr, [x29, #-68]
Ltmp226:
	.loc	30 119 66
	b	LBB45_4
LBB45_3:
	.loc	30 120 21 is_stmt 1
	ldurb	w0, [x29, #-65]
	sturb	w0, [x29, #-50]
Ltmp227:
	.loc	30 120 42 is_stmt 0
	bl	__ZN4spin4once6status6Status13new_unchecked17h401816ce571b485aE
	.loc	30 120 29
	sturb	w0, [x29, #-67]
	mov	w8, #1
	sturb	w8, [x29, #-68]
Ltmp228:
	.loc	30 120 70
	b	LBB45_4
LBB45_4:
	.loc	30 122 10 is_stmt 1
	ldurb	w9, [x29, #-68]
	ldurb	w8, [x29, #-67]
Ltmp229:
	.loc	30 219 24
	and	w9, w9, #0x1
	strb	w9, [sp, #50]
	strb	w8, [sp, #51]
Ltmp230:
	.loc	30 226 19
	ldrb	w8, [sp, #50]
	.loc	30 226 13 is_stmt 0
	tbnz	w8, #0, LBB45_6
	b	LBB45_5
LBB45_5:
	.loc	30 0 13
	ldr	x0, [sp, #32]
	ldr	x8, [sp, #24]
	.loc	30 227 20 is_stmt 1
	ldrb	w9, [sp, #51]
	sturb	w9, [x29, #-113]
	.loc	30 253 25
	add	x8, x8, #32
	str	x8, [sp, #16]
	.loc	30 252 26
	stur	x8, [x29, #-112]
Ltmp231:
	.loc	30 255 29
	strb	wzr, [sp, #135]
	add	x8, sp, #64
	bl	__ZN4spin4once17Once$LT$T$C$R$GT$9call_once28_$u7b$$u7b$closure$u7d$$u7d$17h34605a7b8aadcca3E
	.loc	30 255 23 is_stmt 0
	b	LBB45_11
Ltmp232:
LBB45_6:
	.loc	30 226 19 is_stmt 1
	ldrb	w8, [sp, #51]
	str	w8, [sp, #12]
	.loc	30 226 13 is_stmt 0
	cbz	w8, LBB45_10
	b	LBB45_7
LBB45_7:
	.loc	30 0 13
	ldr	w8, [sp, #12]
	.loc	30 226 13
	subs	w8, w8, #1
	b.eq	LBB45_14
	b	LBB45_8
LBB45_8:
	.loc	30 0 13
	ldr	w8, [sp, #12]
	.loc	30 226 13
	subs	w8, w8, #2
	b.eq	LBB45_15
	b	LBB45_9
LBB45_9:
	b	LBB45_16
Ltmp233:
LBB45_10:
	.loc	30 219 24 is_stmt 1
	b	LBB45_1
LBB45_11:
	.loc	30 0 24 is_stmt 0
	ldr	x8, [sp, #24]
	ldr	x0, [sp, #16]
Ltmp234:
	.loc	30 256 20 is_stmt 1
	ldr	q0, [sp, #64]
	str	q0, [sp, #96]
	ldr	q0, [sp, #80]
	str	q0, [sp, #112]
	mov	x9, x8
	stur	x9, [x29, #-80]
	mov	x9, x8
	stur	x9, [x29, #-96]
	mov	x9, x8
	stur	x9, [x29, #-88]
Ltmp235:
	.loc	15 1534 9
	ldr	q0, [sp, #96]
	str	q0, [x8]
	ldr	q0, [sp, #112]
	str	q0, [x8, #16]
Ltmp236:
	.loc	30 282 13
	bl	__ZN4core3mem6forget17h0698b53f26ef25f9E
	ldr	x8, [sp, #24]
	.loc	30 290 13
	add	x0, x8, #32
	.loc	30 290 31 is_stmt 0
	mov	w8, #2
	strb	w8, [sp, #133]
	.loc	30 290 49
	mov	w8, #1
	strb	w8, [sp, #134]
	.loc	30 290 13
	ldrb	w8, [sp, #133]
	ldrb	w2, [sp, #134]
	sturb	w8, [x29, #-33]
	mov	x8, x0
	stur	x8, [x29, #-32]
	sturb	w2, [x29, #-17]
Ltmp237:
	.loc	30 102 26 is_stmt 1
	ldurb	w1, [x29, #-33]
	.loc	30 102 13 is_stmt 0
	bl	__ZN4core4sync6atomic8AtomicU85store17h7d3141d1b6beb73fE
	ldr	x0, [sp, #24]
Ltmp238:
	.loc	30 293 32 is_stmt 1
	bl	__ZN4spin4once17Once$LT$T$C$R$GT$9force_get17hd22f19e5ef5e362eE
	.loc	30 293 29 is_stmt 0
	str	x0, [sp, #40]
Ltmp239:
	.loc	30 294 9 is_stmt 1
	b	LBB45_12
Ltmp240:
LBB45_12:
	.loc	30 295 5
	ldrb	w8, [sp, #135]
	tbnz	w8, #0, LBB45_19
	b	LBB45_18
LBB45_14:
	.loc	30 0 5 is_stmt 0
	ldr	x0, [sp, #24]
Ltmp241:
	.loc	30 231 47 is_stmt 1
	bl	__ZN4spin4once17Once$LT$T$C$R$GT$4poll17h6f12eef847a00297E
	str	x0, [sp, #56]
	ldr	x8, [sp, #56]
	subs	x8, x8, #0
	cset	x8, ne
	.loc	30 231 41 is_stmt 0
	cbz	x8, LBB45_10
	b	LBB45_17
LBB45_15:
	.loc	30 0 41
	ldr	x0, [sp, #24]
	.loc	30 238 25 is_stmt 1
	bl	__ZN4spin4once17Once$LT$T$C$R$GT$9force_get17hd22f19e5ef5e362eE
	.loc	30 236 28
	str	x0, [sp, #40]
	.file	31 "/Users/yangzhenxun/Documents/GitHub/my-study/src.new/rust/system/rinux" "src/main.rs"
	.loc	31 1 1
	b	LBB45_12
LBB45_16:
	.loc	30 230 42
	adrp	x0, l___unnamed_26@PAGE
	add	x0, x0, l___unnamed_26@PAGEOFF
	mov	w8, #13
	mov	x1, x8
	adrp	x2, l___unnamed_27@PAGE
	add	x2, x2, l___unnamed_27@PAGEOFF
	bl	__ZN4core9panicking5panic17h231f56423bbc3dfcE
LBB45_17:
	.loc	30 232 26
	ldr	x8, [sp, #56]
	stur	x8, [x29, #-104]
Ltmp242:
	.loc	30 232 39 is_stmt 0
	str	x8, [sp, #40]
Ltmp243:
	.loc	31 1 1 is_stmt 1
	b	LBB45_12
Ltmp244:
LBB45_18:
	.loc	30 295 6
	ldr	x0, [sp, #40]
	.loc	30 295 6 epilogue_begin is_stmt 0
	ldp	x29, x30, [sp, #272]
	ldp	x28, x27, [sp, #256]
	add	sp, sp, #288
	ret
LBB45_19:
	.loc	30 295 5
	b	LBB45_18
Ltmp245:
Lfunc_end45:
	.cfi_endproc

	.p2align	2
__ZN4spin4once17Once$LT$T$C$R$GT$3get17h351b90f3c8b33050E:
Lfunc_begin46:
	.loc	30 399 0 is_stmt 1
	.cfi_startproc
	sub	sp, sp, #64
	stp	x29, x30, [sp, #48]
	add	x29, sp, #48
	.cfi_def_cfa w29, 16
	.cfi_offset w30, -8
	.cfi_offset w29, -16
	str	x0, [sp]
	str	x0, [sp, #24]
	mov	w8, #2
Ltmp246:
	.loc	30 402 32 prologue_end
	strb	w8, [sp, #23]
	.loc	30 402 15 is_stmt 0
	ldrb	w1, [sp, #23]
	add	x0, x0, #32
	mov	x8, x0
	stur	x8, [x29, #-16]
	sturb	w1, [x29, #-1]
Ltmp247:
	.loc	30 96 44 is_stmt 1
	bl	__ZN4core4sync6atomic8AtomicU84load17hdc89021f4f7f0594E
	.loc	30 96 22 is_stmt 0
	bl	__ZN4spin4once6status6Status13new_unchecked17h401816ce571b485aE
Ltmp248:
	.loc	30 402 15 is_stmt 1
	strb	w0, [sp, #22]
	ldrb	w8, [sp, #22]
	.loc	30 402 9 is_stmt 0
	subs	w8, w8, #2
	b.ne	LBB46_2
	b	LBB46_1
LBB46_1:
	.loc	30 0 9
	ldr	x0, [sp]
	.loc	30 403 47 is_stmt 1
	bl	__ZN4spin4once17Once$LT$T$C$R$GT$9force_get17hd22f19e5ef5e362eE
	.loc	30 403 33 is_stmt 0
	str	x0, [sp, #8]
	.loc	30 403 65
	b	LBB46_3
LBB46_2:
	.loc	30 404 18 is_stmt 1
	str	xzr, [sp, #8]
	b	LBB46_3
LBB46_3:
	.loc	30 406 6
	ldr	x0, [sp, #8]
	.loc	30 406 6 epilogue_begin is_stmt 0
	ldp	x29, x30, [sp, #48]
	add	sp, sp, #64
	ret
Ltmp249:
Lfunc_end46:
	.cfi_endproc

	.p2align	2
__ZN4spin4once17Once$LT$T$C$R$GT$4poll17h6f12eef847a00297E:
Lfunc_begin47:
	.loc	30 325 0 is_stmt 1
	.cfi_startproc
	sub	sp, sp, #80
	stp	x29, x30, [sp, #64]
	add	x29, sp, #64
	.cfi_def_cfa w29, 16
	.cfi_offset w30, -8
	.cfi_offset w29, -16
	str	x0, [sp, #16]
	stur	x0, [x29, #-24]
Ltmp250:
	.loc	30 326 9 prologue_end
	b	LBB47_1
LBB47_1:
	.loc	30 0 9 is_stmt 0
	ldr	x8, [sp, #16]
	.loc	30 330 19 is_stmt 1
	add	x0, x8, #32
	.loc	30 330 36 is_stmt 0
	mov	w8, #2
	sturb	w8, [x29, #-25]
	.loc	30 330 19
	ldurb	w1, [x29, #-25]
	mov	x8, x0
	stur	x8, [x29, #-16]
	sturb	w1, [x29, #-1]
Ltmp251:
	.loc	30 96 44 is_stmt 1
	bl	__ZN4core4sync6atomic8AtomicU84load17hdc89021f4f7f0594E
	.loc	30 96 22 is_stmt 0
	bl	__ZN4spin4once6status6Status13new_unchecked17h401816ce571b485aE
Ltmp252:
	.loc	30 330 19 is_stmt 1
	sturb	w0, [x29, #-26]
	ldurb	w8, [x29, #-26]
	str	w8, [sp, #12]
	.loc	30 330 13 is_stmt 0
	cbz	w8, LBB47_6
	b	LBB47_2
LBB47_2:
	.loc	30 0 13
	ldr	w8, [sp, #12]
	.loc	30 330 13
	subs	w8, w8, #1
	b.eq	LBB47_7
	b	LBB47_3
LBB47_3:
	.loc	30 0 13
	ldr	w8, [sp, #12]
	.loc	30 330 13
	subs	w8, w8, #2
	b.eq	LBB47_8
	b	LBB47_4
LBB47_4:
	b	LBB47_9
LBB47_6:
	.loc	30 331 46 is_stmt 1
	str	xzr, [sp, #24]
	.loc	30 331 39 is_stmt 0
	b	LBB47_10
LBB47_7:
Ltmp253:
	.file	32 "/Users/yangzhenxun/.cargo/registry/src/index.crates.io-6f17d22bba15001f/spin-0.9.8/src" "relax.rs"
	.loc	32 29 9 is_stmt 1
	bl	__ZN4core4sync6atomic14spin_loop_hint17hbfdd5f9e0847c47fE
Ltmp254:
	.loc	30 332 36
	b	LBB47_1
LBB47_8:
	.loc	30 0 36 is_stmt 0
	ldr	x0, [sp, #16]
	.loc	30 333 58 is_stmt 1
	bl	__ZN4spin4once17Once$LT$T$C$R$GT$9force_get17hd22f19e5ef5e362eE
	.loc	30 333 44 is_stmt 0
	str	x0, [sp, #24]
	.loc	31 1 1 is_stmt 1
	b	LBB47_10
LBB47_9:
	.loc	30 334 37
	adrp	x0, l___unnamed_28@PAGE
	add	x0, x0, l___unnamed_28@PAGEOFF
	mov	w8, #38
	mov	x1, x8
	adrp	x2, l___unnamed_29@PAGE
	add	x2, x2, l___unnamed_29@PAGEOFF
	bl	__ZN4core9panicking5panic17h231f56423bbc3dfcE
LBB47_10:
	.loc	30 337 6
	ldr	x0, [sp, #24]
	.loc	30 337 6 epilogue_begin is_stmt 0
	ldp	x29, x30, [sp, #64]
	add	sp, sp, #80
	ret
Ltmp255:
Lfunc_end47:
	.cfi_endproc

	.p2align	2
__ZN4spin4once17Once$LT$T$C$R$GT$9call_once17h9a68c2e262f80451E:
Lfunc_begin48:
	.loc	30 168 0 is_stmt 1
	.cfi_startproc
	sub	sp, sp, #64
	stp	x29, x30, [sp, #48]
	add	x29, sp, #48
	.cfi_def_cfa w29, 16
	.cfi_offset w30, -8
	.cfi_offset w29, -16
Ltmp256:
	.loc	30 171 17 prologue_end
	mov	x8, x0
	str	x8, [sp, #24]
	mov	x8, x1
	stur	x8, [x29, #-16]
Ltmp257:
	.loc	30 169 15
	bl	__ZN4spin4once17Once$LT$T$C$R$GT$13try_call_once17hbf5cd29b16103d7fE
	str	x0, [sp, #16]
	.loc	30 169 9 is_stmt 0
	b	LBB48_1
LBB48_1:
	.loc	30 170 16 is_stmt 1
	ldr	x0, [sp, #16]
	stur	x0, [x29, #-8]
	.loc	30 173 6 epilogue_begin
	ldp	x29, x30, [sp, #48]
	add	sp, sp, #64
	ret
Ltmp258:
Lfunc_end48:
	.cfi_endproc

	.p2align	2
__ZN4spin4once17Once$LT$T$C$R$GT$9call_once28_$u7b$$u7b$closure$u7d$$u7d$17h34605a7b8aadcca3E:
Lfunc_begin49:
	.loc	30 169 0
	.cfi_startproc
	sub	sp, sp, #64
	stp	x29, x30, [sp, #48]
	add	x29, sp, #48
	.cfi_def_cfa w29, 16
	.cfi_offset w30, -8
	.cfi_offset w29, -16
	str	x8, [sp]
	mov	x8, x0
	stur	x8, [x29, #-8]
	add	x8, sp, #8
Ltmp259:
	.loc	30 169 72 prologue_end
	bl	__ZN4spin4lazy21Lazy$LT$T$C$F$C$R$GT$5force28_$u7b$$u7b$closure$u7d$$u7d$17h29ac81b851b00642E
	ldr	x8, [sp]
	.loc	30 169 37 is_stmt 0
	ldur	q0, [sp, #8]
	str	q0, [x8]
	ldur	q0, [sp, #24]
	str	q0, [x8, #16]
	.loc	30 169 76 epilogue_begin
	ldp	x29, x30, [sp, #48]
	add	sp, sp, #64
	ret
Ltmp260:
Lfunc_end49:
	.cfi_endproc

	.p2align	2
__ZN4spin4once17Once$LT$T$C$R$GT$9force_get17hd22f19e5ef5e362eE:
Lfunc_begin50:
	.loc	30 375 0 is_stmt 1
	.cfi_startproc
	sub	sp, sp, #32
	.cfi_def_cfa_offset 32
	mov	x8, x0
	str	x8, [sp, #8]
	mov	x8, x0
	str	x8, [sp, #24]
	mov	x8, x0
	str	x8, [sp, #16]
Ltmp262:
	.loc	30 380 6 prologue_end epilogue_begin
	add	sp, sp, #32
	ret
Ltmp263:
Lfunc_end50:
	.cfi_endproc

	.p2align	2
__ZN53_$LT$core..fmt..Error$u20$as$u20$core..fmt..Debug$GT$3fmt17h4f4136ce55b44dcbE:
Lfunc_begin51:
	.loc	10 106 0
	.cfi_startproc
	sub	sp, sp, #32
	stp	x29, x30, [sp, #16]
	add	x29, sp, #16
	.cfi_def_cfa w29, 16
	.cfi_offset w30, -8
	.cfi_offset w29, -16
	mov	x8, x0
	mov	x0, x1
	str	x8, [sp]
	mov	x1, x0
	str	x1, [sp, #8]
Ltmp264:
	.loc	10 106 23 prologue_end
	adrp	x1, l___unnamed_30@PAGE
	add	x1, x1, l___unnamed_30@PAGEOFF
	mov	w8, #5
	mov	x2, x8
	bl	__ZN4core3fmt9Formatter9write_str17h981b7013b08ce90fE
	.loc	10 106 28 epilogue_begin is_stmt 0
	ldp	x29, x30, [sp, #16]
	add	sp, sp, #32
	ret
Ltmp265:
Lfunc_end51:
	.cfi_endproc

	.p2align	2
__ZN63_$LT$I$u20$as$u20$core..iter..traits..collect..IntoIterator$GT$9into_iter17h2d3453d624680fa7E:
Lfunc_begin52:
	.file	33 "/private/tmp/rust-20240808-9779-6572l6/rustc-1.80.1-src/library/core/src/iter/traits" "collect.rs"
	.loc	33 355 0 is_stmt 1
	.cfi_startproc
	sub	sp, sp, #16
	.cfi_def_cfa_offset 16
	mov	x8, x0
	str	x8, [sp]
	mov	x8, x1
	str	x8, [sp, #8]
Ltmp267:
	.loc	33 357 6 prologue_end epilogue_begin
	add	sp, sp, #16
	ret
Ltmp268:
Lfunc_end52:
	.cfi_endproc

	.p2align	2
__ZN63_$LT$I$u20$as$u20$core..iter..traits..collect..IntoIterator$GT$9into_iter17hf60c1ec168eb9e20E:
Lfunc_begin53:
	.loc	33 355 0
	.cfi_startproc
	sub	sp, sp, #16
	.cfi_def_cfa_offset 16
	str	x0, [sp]
	str	x1, [sp, #8]
Ltmp270:
	.loc	33 357 6 prologue_end epilogue_begin
	add	sp, sp, #16
	ret
Ltmp271:
Lfunc_end53:
	.cfi_endproc

	.p2align	2
__ZN67_$LT$spin..once..status..Status$u20$as$u20$core..cmp..PartialEq$GT$2eq17hff51d1a51fa8e45eE:
Lfunc_begin54:
	.loc	30 68 0
	.cfi_startproc
	sub	sp, sp, #32
	.cfi_def_cfa_offset 32
	mov	x8, x0
	str	x8, [sp, #8]
	mov	x8, x1
	str	x8, [sp, #16]
Ltmp273:
	.loc	30 68 34 prologue_end
	ldrb	w8, [x0]
	strb	w8, [sp, #30]
Ltmp274:
	.loc	30 68 34 is_stmt 0
	ldrb	w9, [x1]
	strb	w9, [sp, #31]
Ltmp275:
	.loc	30 68 34
	subs	w8, w8, w9, uxtb
	cset	w0, eq
Ltmp276:
	.loc	30 68 43 epilogue_begin
	add	sp, sp, #32
	ret
Ltmp277:
Lfunc_end54:
	.cfi_endproc

	.p2align	2
__ZN71_$LT$spin..once..Once$LT$T$C$R$GT$$u20$as$u20$core..ops..drop..Drop$GT$4drop17h23725374f7b8297eE:
Lfunc_begin55:
	.loc	30 498 0 is_stmt 1
	.cfi_startproc
	sub	sp, sp, #64
	stp	x29, x30, [sp, #48]
	add	x29, sp, #48
	.cfi_def_cfa w29, 16
	.cfi_offset w30, -8
	.cfi_offset w29, -16
	str	x0, [sp]
	str	x0, [sp, #8]
Ltmp278:
	.loc	30 500 13 prologue_end
	add	x0, x0, #32
	mov	x8, x0
	stur	x8, [x29, #-16]
Ltmp279:
	.loc	30 127 30
	bl	__ZN4core4sync6atomic8AtomicU87get_mut17hb6cc5567aefabdd0E
	mov	x8, x0
	stur	x8, [x29, #-8]
Ltmp280:
	.loc	30 500 12
	adrp	x1, l___unnamed_31@PAGE
	add	x1, x1, l___unnamed_31@PAGEOFF
	bl	__ZN67_$LT$spin..once..status..Status$u20$as$u20$core..cmp..PartialEq$GT$2eq17hff51d1a51fa8e45eE
	tbnz	w0, #0, LBB55_2
	b	LBB55_1
LBB55_1:
	.loc	30 506 6 epilogue_begin
	ldp	x29, x30, [sp, #48]
	add	sp, sp, #64
	ret
LBB55_2:
	.loc	30 0 6 is_stmt 0
	ldr	x8, [sp]
	str	x8, [sp, #24]
	str	x8, [sp, #16]
	.loc	30 503 17 is_stmt 1
	b	LBB55_1
Ltmp281:
Lfunc_end55:
	.cfi_endproc

	.p2align	2
__ZN72_$LT$core..option..Option$LT$T$GT$$u20$as$u20$core..default..Default$GT$7default17h352eb9aa714cf55fE:
Lfunc_begin56:
	.loc	3 2035 0
	.cfi_startproc
	sub	sp, sp, #16
	.cfi_def_cfa_offset 16
Ltmp283:
	.loc	3 2036 9 prologue_end
	str	xzr, [sp, #8]
	.loc	3 2037 6
	ldr	x0, [sp, #8]
	.loc	3 2037 6 epilogue_begin is_stmt 0
	add	sp, sp, #16
	ret
Ltmp284:
Lfunc_end56:
	.cfi_endproc

	.p2align	2
__ZN75_$LT$$RF$mut$u20$W$u20$as$u20$core..fmt..Write..write_fmt..SpecWriteFmt$GT$14spec_write_fmt17h388ba9d8ae2ec304E:
Lfunc_begin57:
	.loc	10 226 0 is_stmt 1
	.cfi_startproc
	sub	sp, sp, #144
	stp	x29, x30, [sp, #128]
	add	x29, sp, #128
	.cfi_def_cfa w29, 16
	.cfi_offset w30, -8
	.cfi_offset w29, -16
	mov	x8, x0
	str	x8, [sp, #16]
	mov	x0, x1
	str	x0, [sp, #24]
Ltmp285:
	str	x8, [sp, #56]
Ltmp286:
	.loc	10 227 34 prologue_end
	bl	__ZN4core3fmt9Arguments23as_statically_known_str17hc30d56393b94a979E
Ltmp287:
	str	x0, [sp, #40]
	str	x1, [sp, #48]
	.loc	10 227 24 is_stmt 0
	ldr	x8, [sp, #40]
	subs	x8, x8, #0
	cset	x8, ne
	subs	x8, x8, #1
Ltmp288:
	b.ne	LBB57_2
	b	LBB57_1
Ltmp289:
LBB57_1:
	.loc	10 0 24
	ldr	x0, [sp, #16]
	.loc	10 227 29
	ldr	x1, [sp, #40]
	ldr	x2, [sp, #48]
	str	x1, [sp, #64]
	str	x2, [sp, #72]
	.loc	10 228 21 is_stmt 1
	bl	__ZN59_$LT$rinux..vga_buf..Writer$u20$as$u20$core..fmt..Write$GT$9write_str17h6b294b3ff0b7565aE
	strb	w0, [sp, #39]
	b	LBB57_3
Ltmp290:
LBB57_2:
	.loc	10 0 21 is_stmt 0
	ldr	x1, [sp, #24]
	sub	x0, x29, #48
	str	x0, [sp, #8]
	.loc	10 230 21 is_stmt 1
	mov	w8, #48
	mov	x2, x8
	bl	_memcpy
	ldr	x0, [sp, #16]
	ldr	x2, [sp, #8]
	adrp	x1, l___unnamed_2@PAGE
	add	x1, x1, l___unnamed_2@PAGEOFF
	bl	__ZN4core3fmt5write17he20999f7a51cdf3eE
	strb	w0, [sp, #39]
	.loc	10 227 17
	b	LBB57_3
Ltmp291:
LBB57_3:
	.loc	10 232 14
	ldrb	w8, [sp, #39]
	and	w0, w8, #0x1
	.loc	10 232 14 epilogue_begin is_stmt 0
	ldp	x29, x30, [sp, #128]
	add	sp, sp, #144
Ltmp292:
	ret
Ltmp293:
Lfunc_end57:
	.cfi_endproc

	.p2align	2
__ZN77_$LT$spin..lazy..Lazy$LT$T$C$F$C$R$GT$$u20$as$u20$core..ops..deref..Deref$GT$5deref17h179c52507a05d68dE:
Lfunc_begin58:
	.loc	29 108 0 is_stmt 1
	.cfi_startproc
	sub	sp, sp, #32
	stp	x29, x30, [sp, #16]
	add	x29, sp, #16
	.cfi_def_cfa w29, 16
	.cfi_offset w30, -8
	.cfi_offset w29, -16
	mov	x8, x0
	str	x8, [sp, #8]
Ltmp294:
	.loc	29 109 9 prologue_end
	bl	__ZN4spin4lazy21Lazy$LT$T$C$F$C$R$GT$5force17hc088345acfbee302E
	.loc	29 110 6 epilogue_begin
	ldp	x29, x30, [sp, #16]
	add	sp, sp, #32
	ret
Ltmp295:
Lfunc_end58:
	.cfi_endproc

	.p2align	2
__ZN79_$LT$spin..mutex..MutexGuard$LT$T$GT$$u20$as$u20$core..ops..deref..DerefMut$GT$9deref_mut17h1ba503dc0f1a88f8E:
Lfunc_begin59:
	.file	34 "/Users/yangzhenxun/.cargo/registry/src/index.crates.io-6f17d22bba15001f/spin-0.9.8/src" "mutex.rs"
	.loc	34 312 0
	.cfi_startproc
	sub	sp, sp, #32
	stp	x29, x30, [sp, #16]
	add	x29, sp, #16
	.cfi_def_cfa w29, 16
	.cfi_offset w30, -8
	.cfi_offset w29, -16
	mov	x8, x0
	str	x8, [sp, #8]
Ltmp296:
	.loc	34 313 14 prologue_end
	bl	__ZN89_$LT$spin..mutex..spin..SpinMutexGuard$LT$T$GT$$u20$as$u20$core..ops..deref..DerefMut$GT$9deref_mut17h758c24c33f7b181cE
	.loc	34 314 6 epilogue_begin
	ldp	x29, x30, [sp, #16]
	add	sp, sp, #32
	ret
Ltmp297:
Lfunc_end59:
	.cfi_endproc

	.p2align	2
__ZN81_$LT$core..str..iter..Bytes$u20$as$u20$core..iter..traits..iterator..Iterator$GT$4next17h5f79b54956024efdE:
Lfunc_begin60:
	.file	35 "/private/tmp/rust-20240808-9779-6572l6/rustc-1.80.1-src/library/core/src/str" "iter.rs"
	.loc	35 286 0
	.cfi_startproc
	sub	sp, sp, #32
	stp	x29, x30, [sp, #16]
	add	x29, sp, #16
	.cfi_def_cfa w29, 16
	.cfi_offset w30, -8
	.cfi_offset w29, -16
	mov	x8, x0
	str	x8, [sp, #8]
Ltmp298:
	.loc	35 287 9 prologue_end
	bl	__ZN104_$LT$core..iter..adapters..copied..Copied$LT$I$GT$$u20$as$u20$core..iter..traits..iterator..Iterator$GT$4next17h41babc157dd80b3bE
	.loc	35 288 6
	and	w0, w0, #0x1
	.loc	35 288 6 epilogue_begin is_stmt 0
	ldp	x29, x30, [sp, #16]
	add	sp, sp, #32
	ret
Ltmp299:
Lfunc_end60:
	.cfi_endproc

	.p2align	2
__ZN84_$LT$spin..mutex..spin..SpinMutexGuard$LT$T$GT$$u20$as$u20$core..ops..drop..Drop$GT$4drop17hb42ce8ef3a1e26d4E:
Lfunc_begin61:
	.file	36 "/Users/yangzhenxun/.cargo/registry/src/index.crates.io-6f17d22bba15001f/spin-0.9.8/src/mutex" "spin.rs"
	.loc	36 349 0 is_stmt 1
	.cfi_startproc
	sub	sp, sp, #32
	stp	x29, x30, [sp, #16]
	add	x29, sp, #16
	.cfi_def_cfa w29, 16
	.cfi_offset w30, -8
	.cfi_offset w29, -16
	mov	x8, x0
	str	x8, [sp, #8]
Ltmp300:
	.loc	36 350 9 prologue_end
	ldr	x0, [x0]
	.loc	36 350 32 is_stmt 0
	mov	w8, #1
	strb	w8, [sp, #7]
	.loc	36 350 9
	ldrb	w2, [sp, #7]
	mov	w8, #0
	and	w1, w8, #0x1
	bl	__ZN4core4sync6atomic10AtomicBool5store17hd39608388b0294e8E
	.loc	36 351 6 epilogue_begin is_stmt 1
	ldp	x29, x30, [sp, #16]
	add	sp, sp, #32
	ret
Ltmp301:
Lfunc_end61:
	.cfi_endproc

	.p2align	2
__ZN89_$LT$core..ops..range..Range$LT$T$GT$$u20$as$u20$core..iter..range..RangeIteratorImpl$GT$9spec_next17h5f0edaf80116ee45E:
Lfunc_begin62:
	.loc	8 752 0
	.cfi_startproc
	sub	sp, sp, #96
	stp	x29, x30, [sp, #80]
	add	x29, sp, #80
	.cfi_def_cfa w29, 16
	.cfi_offset w30, -8
	.cfi_offset w29, -16
	str	x0, [sp, #24]
	mov	x8, x0
	stur	x8, [x29, #-32]
	mov	x8, x0
	stur	x8, [x29, #-16]
Ltmp302:
	.loc	8 753 25 prologue_end
	add	x8, x0, #8
	stur	x8, [x29, #-8]
Ltmp303:
	.file	37 "/private/tmp/rust-20240808-9779-6572l6/rustc-1.80.1-src/library/core/src" "cmp.rs"
	.loc	37 1565 52
	ldr	x8, [x0]
	.loc	37 1565 62 is_stmt 0
	ldr	x9, [x0, #8]
Ltmp304:
	.loc	8 753 12 is_stmt 1
	subs	x8, x8, x9
	b.lo	LBB62_2
	b	LBB62_1
LBB62_1:
	.loc	8 759 13
	str	xzr, [sp, #32]
	.loc	8 753 9
	b	LBB62_3
LBB62_2:
	.loc	8 0 9 is_stmt 0
	ldr	x8, [sp, #24]
	.loc	8 754 23 is_stmt 1
	ldr	x0, [x8]
	str	x0, [sp, #8]
	stur	x0, [x29, #-24]
	mov	w8, #1
	mov	x1, x8
	str	x1, [sp, #16]
Ltmp305:
	.loc	8 756 35
	bl	__ZN49_$LT$usize$u20$as$u20$core..iter..range..Step$GT$17forward_unchecked17hb798ef1e3809e24cE
	ldr	x10, [sp, #24]
	ldr	x9, [sp, #8]
	ldr	x8, [sp, #16]
	.loc	8 756 13 is_stmt 0
	str	x0, [x10]
	.loc	8 757 13 is_stmt 1
	str	x9, [sp, #40]
	str	x8, [sp, #32]
Ltmp306:
	.loc	8 753 9
	b	LBB62_3
LBB62_3:
	.loc	8 761 6
	ldr	x0, [sp, #32]
	ldr	x1, [sp, #40]
	.loc	8 761 6 epilogue_begin is_stmt 0
	ldp	x29, x30, [sp, #80]
	add	sp, sp, #96
	ret
Ltmp307:
Lfunc_end62:
	.cfi_endproc

	.p2align	2
__ZN89_$LT$spin..mutex..spin..SpinMutexGuard$LT$T$GT$$u20$as$u20$core..ops..deref..DerefMut$GT$9deref_mut17h758c24c33f7b181cE:
Lfunc_begin63:
	.loc	36 341 0 is_stmt 1
	.cfi_startproc
	sub	sp, sp, #16
	.cfi_def_cfa_offset 16
	mov	x8, x0
	str	x8, [sp, #8]
Ltmp309:
	.loc	36 343 18 prologue_end
	ldr	x0, [x0, #8]
	.loc	36 344 6 epilogue_begin
	add	sp, sp, #16
	ret
Ltmp310:
Lfunc_end63:
	.cfi_endproc

	.p2align	2
__ZN8volatile17Volatile$LT$T$GT$4read17hffdb544ade36b781E:
Lfunc_begin64:
	.file	38 "/Users/yangzhenxun/.cargo/registry/src/index.crates.io-6f17d22bba15001f/volatile-0.2.7/src" "lib.rs"
	.loc	38 90 0
	.cfi_startproc
	sub	sp, sp, #32
	stp	x29, x30, [sp, #16]
	add	x29, sp, #16
	.cfi_def_cfa w29, 16
	.cfi_offset w30, -8
	.cfi_offset w29, -16
	mov	x8, x0
	str	x8, [sp, #8]
Ltmp311:
	.loc	38 92 18 prologue_end
	bl	__ZN4core3ptr13read_volatile17h5d807babbd2cb412E
	.loc	38 93 6 epilogue_begin
	ldp	x29, x30, [sp, #16]
	add	sp, sp, #32
	ret
Ltmp312:
Lfunc_end64:
	.cfi_endproc

	.p2align	2
__ZN8volatile17Volatile$LT$T$GT$5write17hbf0fe57eadd835e7E:
Lfunc_begin65:
	.loc	38 113 0
	.cfi_startproc
	sub	sp, sp, #32
	stp	x29, x30, [sp, #16]
	add	x29, sp, #16
	.cfi_def_cfa w29, 16
	.cfi_offset w30, -8
	.cfi_offset w29, -16
	mov	x8, x0
	str	x8, [sp]
	sturb	w1, [x29, #-2]
	sturb	w2, [x29, #-1]
Ltmp313:
	.loc	38 115 18 prologue_end
	bl	__ZN4core3ptr14write_volatile17h22598ef14c973c82E
	.loc	38 116 6 epilogue_begin
	ldp	x29, x30, [sp, #16]
	add	sp, sp, #32
	ret
Ltmp314:
Lfunc_end65:
	.cfi_endproc

	.p2align	2
__ZN91_$LT$core..slice..iter..Iter$LT$T$GT$$u20$as$u20$core..iter..traits..iterator..Iterator$GT$4next17h477ded974bcbbb33E:
Lfunc_begin66:
	.file	39 "/private/tmp/rust-20240808-9779-6572l6/rustc-1.80.1-src/library/core/src/slice/iter" "macros.rs"
	.loc	39 154 0
	.cfi_startproc
	sub	sp, sp, #144
	.cfi_def_cfa_offset 144
	str	x0, [sp]
	str	x0, [sp, #40]
Ltmp316:
	.loc	39 28 12 prologue_end
	b	LBB66_1
LBB66_1:
	.loc	39 0 12 is_stmt 0
	ldr	x8, [sp]
	.loc	15 2208 5 is_stmt 1
	add	x9, x8, #8
	str	x9, [sp, #48]
	.loc	39 33 33
	ldr	x10, [x8, #8]
	add	x9, sp, #24
	str	x10, [sp, #24]
Ltmp317:
	.loc	39 44 20
	mov	x10, x8
	str	x10, [sp, #56]
	.loc	39 44 33 is_stmt 0
	str	x9, [sp, #64]
Ltmp318:
	.loc	20 1796 9 is_stmt 1
	ldr	x8, [x8]
	str	x8, [sp, #72]
Ltmp319:
	.loc	20 351 9
	ldr	x9, [sp, #24]
Ltmp320:
	.loc	20 1796 9
	subs	x8, x8, x9
	cset	w8, eq
	strb	w8, [sp, #23]
Ltmp321:
	.loc	39 28 9
	b	LBB66_2
LBB66_2:
	.loc	39 25 86
	ldrb	w8, [sp, #23]
	tbnz	w8, #0, LBB66_4
	b	LBB66_3
LBB66_3:
	.loc	39 0 86 is_stmt 0
	ldr	x10, [sp]
	mov	x8, x10
	str	x8, [sp, #96]
	mov	w8, #1
	str	x8, [sp, #104]
Ltmp322:
	.loc	39 100 27 is_stmt 1
	ldr	x9, [x10]
	str	x9, [sp, #112]
Ltmp323:
	.loc	15 2296 5
	add	x8, x10, #8
	mov	x11, x8
	str	x11, [sp, #120]
Ltmp324:
	.loc	6 60 9
	str	x8, [sp, #128]
Ltmp325:
	.loc	39 107 44
	ldr	x8, [x10]
	str	x8, [sp, #136]
Ltmp326:
	.loc	20 624 37
	add	x8, x8, #1
Ltmp327:
	.loc	39 107 33
	str	x8, [x10]
	add	x8, sp, #32
Ltmp328:
	.loc	39 441 21
	str	x9, [sp, #32]
	str	x8, [sp, #80]
Ltmp329:
	.loc	20 351 9
	ldr	x8, [sp, #32]
	str	x8, [sp, #88]
Ltmp330:
	.loc	39 163 25
	str	x8, [sp, #8]
	.loc	39 160 21
	b	LBB66_5
LBB66_4:
	.loc	39 161 25
	str	xzr, [sp, #8]
	.loc	39 160 21
	b	LBB66_5
LBB66_5:
	.loc	39 166 14
	ldr	x0, [sp, #8]
	.loc	39 166 14 epilogue_begin is_stmt 0
	add	sp, sp, #144
	ret
Ltmp331:
Lfunc_end66:
	.cfi_endproc

	.private_extern	_rust_begin_unwind
	.globl	_rust_begin_unwind
	.p2align	2
_rust_begin_unwind:
Lfunc_begin67:
	.file	40 "/Users/yangzhenxun/Documents/GitHub/my-study/src.new/rust/system/rinux" "src/lang_items.rs"
	.loc	40 5 0 is_stmt 1
	.cfi_startproc
	sub	sp, sp, #16
	.cfi_def_cfa_offset 16
	str	x0, [sp, #8]
Ltmp333:
	.loc	40 6 5 prologue_end
	b	LBB67_1
LBB67_1:
	b	LBB67_1
Ltmp334:
Lfunc_end67:
	.cfi_endproc

	.p2align	2
__ZN5rinux7vga_buf9ColorCode3new17hb72675d74d72f5f7E:
Lfunc_begin68:
	.loc	1 26 0
	.cfi_startproc
	sub	sp, sp, #16
	.cfi_def_cfa_offset 16
	strb	w0, [sp, #14]
	strb	w1, [sp, #15]
Ltmp336:
	.loc	1 27 19 prologue_end
	ldrb	w8, [sp, #15]
	mov	x9, x8
	.loc	1 27 45 is_stmt 0
	ldrb	w8, [sp, #14]
	.loc	1 27 19
	orr	w0, w8, w9, lsl #4
	.loc	1 28 6 epilogue_begin is_stmt 1
	add	sp, sp, #16
	ret
Ltmp337:
Lfunc_end68:
	.cfi_endproc

	.p2align	2
__ZN5rinux7vga_buf6Writer10write_byte17hb356065610228ee8E:
Lfunc_begin69:
	.loc	1 50 0
	.cfi_startproc
	sub	sp, sp, #96
	stp	x29, x30, [sp, #80]
	add	x29, sp, #80
	.cfi_def_cfa w29, 16
	.cfi_offset w30, -8
	.cfi_offset w29, -16
	str	x0, [sp, #24]
	str	w1, [sp, #36]
	str	x0, [sp, #40]
	sturb	w1, [x29, #-25]
Ltmp338:
	.loc	1 51 9 prologue_end
	and	w8, w1, #0xff
	subs	w8, w8, #10
	b.ne	LBB69_2
	b	LBB69_1
LBB69_1:
	.loc	1 0 9 is_stmt 0
	ldr	x0, [sp, #24]
	.loc	1 52 22 is_stmt 1
	bl	__ZN5rinux7vga_buf6Writer8new_line17h239d39672324d72aE
	b	LBB69_3
LBB69_2:
	.loc	1 0 22 is_stmt 0
	ldr	x8, [sp, #24]
Ltmp339:
	.loc	1 54 20 is_stmt 1
	ldr	x8, [x8, #8]
	subs	x8, x8, #80
	b.hs	LBB69_5
	b	LBB69_4
Ltmp340:
LBB69_3:
	.loc	1 67 6 epilogue_begin
	ldp	x29, x30, [sp, #80]
	add	sp, sp, #96
	ret
LBB69_4:
	.loc	1 0 6 is_stmt 0
	ldr	x9, [sp, #24]
Ltmp341:
	.loc	1 57 27 is_stmt 1
	mov	w8, #24
	stur	x8, [x29, #-24]
Ltmp342:
	.loc	1 58 27
	ldr	x8, [x9, #8]
	str	x8, [sp, #8]
	stur	x8, [x29, #-16]
Ltmp343:
	.loc	1 59 34
	ldrb	w9, [x9, #16]
	str	w9, [sp, #20]
	sturb	w9, [x29, #-1]
Ltmp344:
	.loc	1 60 17
	subs	x8, x8, #80
	b.lo	LBB69_6
	b	LBB69_7
Ltmp345:
LBB69_5:
	.loc	1 0 17 is_stmt 0
	ldr	x0, [sp, #24]
	.loc	1 55 21 is_stmt 1
	bl	__ZN5rinux7vga_buf6Writer8new_line17h239d39672324d72aE
	b	LBB69_4
LBB69_6:
	.loc	1 0 21 is_stmt 0
	ldr	x8, [sp, #24]
	ldr	w2, [sp, #20]
	ldr	w1, [sp, #36]
	ldr	x9, [sp, #8]
Ltmp346:
	.loc	1 60 17 is_stmt 1
	ldr	x8, [x8]
	add	x8, x8, #3840
	add	x0, x8, x9, lsl #1
	bl	__ZN8volatile17Volatile$LT$T$GT$5write17hbf0fe57eadd835e7E
	ldr	x8, [sp, #24]
	.loc	1 64 17
	ldr	x8, [x8, #8]
	adds	x8, x8, #1
	str	x8, [sp]
	cset	w8, hs
	tbnz	w8, #0, LBB69_9
	b	LBB69_8
LBB69_7:
	.loc	1 0 17 is_stmt 0
	ldr	x0, [sp, #8]
	.loc	1 60 17 is_stmt 1
	mov	w8, #80
	mov	x1, x8
	adrp	x2, l___unnamed_32@PAGE
	add	x2, x2, l___unnamed_32@PAGEOFF
	bl	__ZN4core9panicking18panic_bounds_check17hc595c7c3b8f4f13aE
LBB69_8:
	.loc	1 0 17 is_stmt 0
	ldr	x8, [sp]
	ldr	x9, [sp, #24]
	.loc	1 64 17 is_stmt 1
	str	x8, [x9, #8]
Ltmp347:
	.loc	1 65 13
	b	LBB69_3
LBB69_9:
Ltmp348:
	.loc	1 64 17
	adrp	x0, l___unnamed_33@PAGE
	add	x0, x0, l___unnamed_33@PAGEOFF
	bl	__ZN4core9panicking11panic_const24panic_const_add_overflow17ha6c5c8af4a85d2a6E
Ltmp349:
Lfunc_end69:
	.cfi_endproc

	.p2align	2
__ZN5rinux7vga_buf6Writer8new_line17h239d39672324d72aE:
Lfunc_begin70:
	.loc	1 68 0
	.cfi_startproc
	sub	sp, sp, #192
	stp	x29, x30, [sp, #176]
	add	x29, sp, #176
	.cfi_def_cfa w29, 16
	.cfi_offset w30, -8
	.cfi_offset w29, -16
	str	x0, [sp, #72]
	stur	x0, [x29, #-32]
Ltmp350:
	.loc	1 69 20 prologue_end
	mov	w8, #1
	mov	x0, x8
	mov	w8, #25
	mov	x1, x8
	bl	__ZN63_$LT$I$u20$as$u20$core..iter..traits..collect..IntoIterator$GT$9into_iter17hf60c1ec168eb9e20E
	str	x0, [sp, #80]
	str	x1, [sp, #88]
Ltmp351:
	.loc	1 69 9 is_stmt 0
	b	LBB70_2
LBB70_1:
	.loc	1 69 20
	b	LBB70_2
LBB70_2:
	add	x0, sp, #80
	bl	__ZN4core4iter5range101_$LT$impl$u20$core..iter..traits..iterator..Iterator$u20$for$u20$core..ops..range..Range$LT$A$GT$$GT$4next17h349ecb3bd08056a7E
	stur	x0, [x29, #-80]
	stur	x1, [x29, #-72]
	ldur	x8, [x29, #-80]
	cbnz	x8, LBB70_4
	b	LBB70_3
Ltmp352:
LBB70_3:
	.loc	1 0 20
	ldr	x0, [sp, #72]
	.loc	1 75 9 is_stmt 1
	mov	w8, #24
	mov	x1, x8
	bl	__ZN5rinux7vga_buf6Writer9clear_row17h1cb71acb5a81f1deE
	ldr	x8, [sp, #72]
	.loc	1 76 9
	str	xzr, [x8, #8]
	.loc	1 77 6 epilogue_begin
	ldp	x29, x30, [sp, #176]
	add	sp, sp, #192
	ret
LBB70_4:
Ltmp353:
	.loc	1 69 13
	ldur	x8, [x29, #-72]
	str	x8, [sp, #64]
	stur	x8, [x29, #-24]
Ltmp354:
	.loc	1 70 24
	mov	x0, #0
	mov	w8, #80
	mov	x1, x8
	bl	__ZN63_$LT$I$u20$as$u20$core..iter..traits..collect..IntoIterator$GT$9into_iter17hf60c1ec168eb9e20E
	stur	x0, [x29, #-64]
	stur	x1, [x29, #-56]
Ltmp355:
	.loc	1 70 13 is_stmt 0
	b	LBB70_5
LBB70_5:
	.loc	1 70 24
	sub	x0, x29, #64
	bl	__ZN4core4iter5range101_$LT$impl$u20$core..iter..traits..iterator..Iterator$u20$for$u20$core..ops..range..Range$LT$A$GT$$GT$4next17h349ecb3bd08056a7E
	stur	x0, [x29, #-48]
	stur	x1, [x29, #-40]
	ldur	x8, [x29, #-48]
	cbz	x8, LBB70_1
	b	LBB70_6
LBB70_6:
	.loc	1 0 24
	ldr	x8, [sp, #64]
	.loc	1 70 17
	ldur	x9, [x29, #-40]
	str	x9, [sp, #48]
	stur	x9, [x29, #-16]
Ltmp356:
	.loc	1 71 33 is_stmt 1
	subs	x9, x8, #25
	str	x8, [sp, #56]
	b.hs	LBB70_8
	b	LBB70_7
LBB70_7:
	.loc	1 0 33 is_stmt 0
	ldr	x8, [sp, #48]
	.loc	1 71 33
	subs	x9, x8, #80
	str	x8, [sp, #40]
	b.lo	LBB70_9
	b	LBB70_10
LBB70_8:
	.loc	1 0 33
	ldr	x0, [sp, #56]
	.loc	1 71 33
	mov	w8, #25
	mov	x1, x8
	adrp	x2, l___unnamed_34@PAGE
	add	x2, x2, l___unnamed_34@PAGEOFF
	bl	__ZN4core9panicking18panic_bounds_check17hc595c7c3b8f4f13aE
LBB70_9:
	.loc	1 0 33
	ldr	x10, [sp, #64]
	ldr	x9, [sp, #48]
	ldr	x8, [sp, #72]
	.loc	1 71 33
	ldr	x8, [x8]
	mov	w11, #160
	mul	x10, x10, x11
	add	x8, x8, x10
	add	x0, x8, x9, lsl #1
	bl	__ZN8volatile17Volatile$LT$T$GT$4read17hffdb544ade36b781E
	ldr	x8, [sp, #64]
	str	w0, [sp, #24]
	str	w1, [sp, #28]
	sturb	w0, [x29, #-2]
	sturb	w1, [x29, #-1]
Ltmp357:
	.loc	1 72 35 is_stmt 1
	subs	x9, x8, #1
	str	x9, [sp, #32]
	subs	x8, x8, #1
	b.lo	LBB70_12
	b	LBB70_11
Ltmp358:
LBB70_10:
	.loc	1 0 35 is_stmt 0
	ldr	x0, [sp, #40]
	.loc	1 71 33 is_stmt 1
	mov	w8, #80
	mov	x1, x8
	adrp	x2, l___unnamed_34@PAGE
	add	x2, x2, l___unnamed_34@PAGEOFF
	bl	__ZN4core9panicking18panic_bounds_check17hc595c7c3b8f4f13aE
LBB70_11:
	.loc	1 0 33 is_stmt 0
	ldr	x8, [sp, #32]
Ltmp359:
	.loc	1 72 17 is_stmt 1
	subs	x9, x8, #25
	str	x8, [sp, #16]
	b.lo	LBB70_13
	b	LBB70_14
LBB70_12:
	.loc	1 72 35 is_stmt 0
	adrp	x0, l___unnamed_35@PAGE
	add	x0, x0, l___unnamed_35@PAGEOFF
	bl	__ZN4core9panicking11panic_const24panic_const_sub_overflow17hcda1f71aede784a7E
LBB70_13:
	.loc	1 0 35
	ldr	x8, [sp, #48]
	.loc	1 72 17
	subs	x9, x8, #80
	str	x8, [sp, #8]
	b.lo	LBB70_15
	b	LBB70_16
LBB70_14:
	.loc	1 0 17
	ldr	x0, [sp, #16]
	.loc	1 72 17
	mov	w8, #25
	mov	x1, x8
	adrp	x2, l___unnamed_36@PAGE
	add	x2, x2, l___unnamed_36@PAGEOFF
	bl	__ZN4core9panicking18panic_bounds_check17hc595c7c3b8f4f13aE
LBB70_15:
	.loc	1 0 17
	ldr	w2, [sp, #28]
	ldr	w1, [sp, #24]
	ldr	x9, [sp, #48]
	ldr	x10, [sp, #32]
	ldr	x8, [sp, #72]
	.loc	1 72 17
	ldr	x8, [x8]
	mov	w11, #160
	mul	x10, x10, x11
	add	x8, x8, x10
	add	x0, x8, x9, lsl #1
	bl	__ZN8volatile17Volatile$LT$T$GT$5write17hbf0fe57eadd835e7E
	b	LBB70_5
LBB70_16:
	.loc	1 0 17
	ldr	x0, [sp, #8]
	.loc	1 72 17
	mov	w8, #80
	mov	x1, x8
	adrp	x2, l___unnamed_36@PAGE
	add	x2, x2, l___unnamed_36@PAGEOFF
	bl	__ZN4core9panicking18panic_bounds_check17hc595c7c3b8f4f13aE
Ltmp360:
Lfunc_end70:
	.cfi_endproc

	.p2align	2
__ZN5rinux7vga_buf6Writer9clear_row17h1cb71acb5a81f1deE:
Lfunc_begin71:
	.loc	1 78 0 is_stmt 1
	.cfi_startproc
	sub	sp, sp, #128
	stp	x29, x30, [sp, #112]
	add	x29, sp, #112
	.cfi_def_cfa w29, 16
	.cfi_offset w30, -8
	.cfi_offset w29, -16
	str	x0, [sp, #24]
	str	x1, [sp, #32]
	mov	x8, x0
	stur	x8, [x29, #-32]
	stur	x1, [x29, #-24]
Ltmp361:
	.loc	1 81 25 prologue_end
	ldrb	w8, [x0, #16]
	str	w8, [sp, #44]
	.loc	1 79 21
	mov	w9, #32
	sturb	w9, [x29, #-10]
	sturb	w8, [x29, #-9]
Ltmp362:
	.loc	1 83 20
	mov	x0, #0
	mov	w8, #80
	mov	x1, x8
	bl	__ZN63_$LT$I$u20$as$u20$core..iter..traits..collect..IntoIterator$GT$9into_iter17hf60c1ec168eb9e20E
	str	x0, [sp, #48]
	str	x1, [sp, #56]
Ltmp363:
	.loc	1 83 9 is_stmt 0
	b	LBB71_1
LBB71_1:
	.loc	1 83 20
	add	x0, sp, #48
	bl	__ZN4core4iter5range101_$LT$impl$u20$core..iter..traits..iterator..Iterator$u20$for$u20$core..ops..range..Range$LT$A$GT$$GT$4next17h349ecb3bd08056a7E
	stur	x0, [x29, #-48]
	stur	x1, [x29, #-40]
	ldur	x8, [x29, #-48]
	cbnz	x8, LBB71_3
	b	LBB71_2
Ltmp364:
LBB71_2:
	.loc	1 86 6 epilogue_begin is_stmt 1
	ldp	x29, x30, [sp, #112]
	add	sp, sp, #128
	ret
LBB71_3:
	.loc	1 0 6 is_stmt 0
	ldr	x8, [sp, #32]
Ltmp365:
	.loc	1 83 13 is_stmt 1
	ldur	x9, [x29, #-40]
	str	x9, [sp, #16]
	stur	x9, [x29, #-8]
Ltmp366:
	.loc	1 84 13
	subs	x8, x8, #25
	b.hs	LBB71_5
	b	LBB71_4
LBB71_4:
	.loc	1 0 13 is_stmt 0
	ldr	x8, [sp, #16]
	.loc	1 84 13
	subs	x9, x8, #80
	str	x8, [sp, #8]
	b.lo	LBB71_6
	b	LBB71_7
LBB71_5:
	.loc	1 0 13
	ldr	x0, [sp, #32]
	.loc	1 84 13
	mov	w8, #25
	mov	x1, x8
	adrp	x2, l___unnamed_37@PAGE
	add	x2, x2, l___unnamed_37@PAGEOFF
	bl	__ZN4core9panicking18panic_bounds_check17hc595c7c3b8f4f13aE
LBB71_6:
	.loc	1 0 13
	ldr	w2, [sp, #44]
	ldr	x9, [sp, #16]
	ldr	x10, [sp, #32]
	ldr	x8, [sp, #24]
	.loc	1 84 13
	ldr	x8, [x8]
	mov	w11, #160
	mul	x10, x10, x11
	add	x8, x8, x10
	add	x0, x8, x9, lsl #1
	mov	w1, #32
	bl	__ZN8volatile17Volatile$LT$T$GT$5write17hbf0fe57eadd835e7E
	b	LBB71_1
LBB71_7:
	.loc	1 0 13
	ldr	x0, [sp, #8]
	.loc	1 84 13
	mov	w8, #80
	mov	x1, x8
	adrp	x2, l___unnamed_37@PAGE
	add	x2, x2, l___unnamed_37@PAGEOFF
	bl	__ZN4core9panicking18panic_bounds_check17hc595c7c3b8f4f13aE
Ltmp367:
Lfunc_end71:
	.cfi_endproc

	.p2align	2
__ZN5rinux7vga_buf6Writer12write_string17hd39df8fcb1323c3dE:
Lfunc_begin72:
	.loc	1 87 0 is_stmt 1
	.cfi_startproc
	sub	sp, sp, #96
	stp	x29, x30, [sp, #80]
	add	x29, sp, #80
	.cfi_def_cfa w29, 16
	.cfi_offset w30, -8
	.cfi_offset w29, -16
	mov	x8, x0
	str	x8, [sp, #16]
	mov	x0, x1
	mov	x1, x2
	stur	x8, [x29, #-32]
	mov	x8, x0
	stur	x8, [x29, #-24]
	stur	x1, [x29, #-16]
Ltmp368:
	.loc	1 88 21 prologue_end
	bl	__ZN4core3str21_$LT$impl$u20$str$GT$5bytes17h60761ede4c6ffd7aE
	bl	__ZN63_$LT$I$u20$as$u20$core..iter..traits..collect..IntoIterator$GT$9into_iter17h2d3453d624680fa7E
	str	x0, [sp, #24]
	str	x1, [sp, #32]
Ltmp369:
	.loc	1 88 9 is_stmt 0
	b	LBB72_1
LBB72_1:
	.loc	1 88 21
	add	x0, sp, #24
	bl	__ZN81_$LT$core..str..iter..Bytes$u20$as$u20$core..iter..traits..iterator..Iterator$GT$4next17h5f79b54956024efdE
	and	w8, w0, #0x1
	sturb	w8, [x29, #-34]
	sturb	w1, [x29, #-33]
	ldurb	w8, [x29, #-34]
	tbnz	w8, #0, LBB72_3
	b	LBB72_2
Ltmp370:
LBB72_2:
	.loc	1 94 6 epilogue_begin is_stmt 1
	ldp	x29, x30, [sp, #80]
	add	sp, sp, #96
	ret
LBB72_3:
Ltmp371:
	.loc	1 88 13
	ldurb	w9, [x29, #-33]
	str	w9, [sp, #12]
	sturb	w9, [x29, #-1]
	mov	w8, #32
Ltmp372:
	.loc	1 90 17
	subs	w8, w8, w9, uxtb
	b.ls	LBB72_5
	b	LBB72_4
LBB72_4:
	.loc	1 0 17 is_stmt 0
	ldr	w8, [sp, #12]
	.loc	1 89 13 is_stmt 1
	and	w8, w8, #0xff
	subs	w8, w8, #10
	b.eq	LBB72_6
	b	LBB72_7
LBB72_5:
	.loc	1 0 13 is_stmt 0
	ldr	w8, [sp, #12]
	.loc	1 90 17 is_stmt 1
	and	w8, w8, #0xff
	subs	w8, w8, #126
	b.hi	LBB72_4
	b	LBB72_6
LBB72_6:
	.loc	1 0 17 is_stmt 0
	ldr	w1, [sp, #12]
	ldr	x0, [sp, #16]
	.loc	1 90 40
	bl	__ZN5rinux7vga_buf6Writer10write_byte17hb356065610228ee8E
	b	LBB72_8
LBB72_7:
	.loc	1 0 40
	ldr	x0, [sp, #16]
	mov	w1, #-2
	.loc	1 91 22 is_stmt 1
	bl	__ZN5rinux7vga_buf6Writer10write_byte17hb356065610228ee8E
	b	LBB72_8
Ltmp373:
LBB72_8:
	.loc	1 88 21
	b	LBB72_1
Ltmp374:
Lfunc_end72:
	.cfi_endproc

	.p2align	2
__ZN59_$LT$rinux..vga_buf..Writer$u20$as$u20$core..fmt..Write$GT$9write_str17h6b294b3ff0b7565aE:
Lfunc_begin73:
	.loc	1 100 0
	.cfi_startproc
	sub	sp, sp, #48
	stp	x29, x30, [sp, #32]
	add	x29, sp, #32
	.cfi_def_cfa w29, 16
	.cfi_offset w30, -8
	.cfi_offset w29, -16
	mov	x8, x0
	str	x8, [sp, #8]
	mov	x8, x1
	str	x8, [sp, #16]
	str	x2, [sp, #24]
Ltmp375:
	.loc	1 101 9 prologue_end
	bl	__ZN5rinux7vga_buf6Writer12write_string17hd39df8fcb1323c3dE
	.loc	1 102 9
	strb	wzr, [sp, #7]
	.loc	1 103 6
	ldrb	w8, [sp, #7]
	and	w0, w8, #0x1
	.loc	1 103 6 epilogue_begin is_stmt 0
	ldp	x29, x30, [sp, #32]
	add	sp, sp, #48
	ret
Ltmp376:
Lfunc_end73:
	.cfi_endproc

	.p2align	2
__ZN5rinux7vga_buf6WRITER28_$u7b$$u7b$closure$u7d$$u7d$17hef081863fb422f1fE:
Lfunc_begin74:
	.loc	1 107 0 is_stmt 1
	.cfi_startproc
	sub	sp, sp, #144
	stp	x29, x30, [sp, #128]
	add	x29, sp, #128
	.cfi_def_cfa w29, 16
	.cfi_offset w30, -8
	.cfi_offset w29, -16
	str	x8, [sp, #8]
	str	x0, [sp, #48]
Ltmp377:
	.loc	1 110 36 prologue_end
	mov	w8, #15
	strb	w8, [sp, #46]
	.loc	1 110 50 is_stmt 0
	strb	wzr, [sp, #47]
	.loc	1 110 21
	ldrb	w0, [sp, #46]
	ldrb	w1, [sp, #47]
	bl	__ZN5rinux7vga_buf9ColorCode3new17hb72675d74d72f5f7E
	.loc	1 108 13 is_stmt 1
	str	xzr, [sp, #24]
	strb	w0, [sp, #32]
	mov	w8, #32768
	movk	w8, #11, lsl #16
	str	x8, [sp, #16]
	mov	w8, #0
Ltmp378:
	.loc	36 112 19
	and	w0, w8, #0x1
	bl	__ZN4core4sync6atomic10AtomicBool3new17h0ea381160eceb750E
	ldr	x8, [sp, #8]
	sturb	w0, [x29, #-1]
	ldurb	w9, [x29, #-1]
	sturb	w9, [x29, #-33]
Ltmp379:
	.loc	22 2079 9
	ldr	q0, [sp, #16]
	stur	q0, [x29, #-32]
	ldr	x9, [sp, #32]
	stur	x9, [x29, #-16]
Ltmp380:
	.loc	36 111 9
	ldurb	w10, [x29, #-33]
	add	x9, sp, #56
	strb	w10, [sp, #56]
	ldur	q0, [x29, #-32]
	stur	q0, [x9, #8]
	ldur	x9, [x29, #-16]
	str	x9, [sp, #80]
Ltmp381:
	.loc	34 149 9
	ldur	q0, [sp, #56]
	str	q0, [x8]
	ldur	q0, [sp, #72]
	str	q0, [x8, #16]
Ltmp382:
	.loc	1 114 2 epilogue_begin
	ldp	x29, x30, [sp, #128]
	add	sp, sp, #144
	ret
Ltmp383:
Lfunc_end74:
	.cfi_endproc

	.p2align	2
__ZN5rinux7vga_buf6_print17h4d1bd7f1a1a876a2E:
Lfunc_begin75:
	.loc	1 126 0
	.cfi_startproc
	sub	sp, sp, #176
	stp	x29, x30, [sp, #160]
	add	x29, sp, #160
	.cfi_def_cfa w29, 16
	.cfi_offset w30, -8
	.cfi_offset w29, -16
	str	x0, [sp, #24]
Ltmp384:
	.loc	1 128 5 prologue_end
	adrp	x0, __ZN5rinux7vga_buf6WRITER17hc786366e9558538fE@PAGE
Ltmp385:
	add	x0, x0, __ZN5rinux7vga_buf6WRITER17hc786366e9558538fE@PAGEOFF
	bl	__ZN77_$LT$spin..lazy..Lazy$LT$T$C$F$C$R$GT$$u20$as$u20$core..ops..deref..Deref$GT$5deref17h179c52507a05d68dE
	str	x0, [sp, #32]
	stur	x0, [x29, #-48]
	stur	x0, [x29, #-32]
Ltmp386:
	.loc	36 180 9
	b	LBB75_2
Ltmp387:
LBB75_1:
	.loc	36 180 15 is_stmt 0
	b	LBB75_2
Ltmp388:
LBB75_2:
	.loc	36 0 15
	ldr	x0, [sp, #32]
	.loc	36 182 49 is_stmt 1
	mov	w8, #2
	sturb	w8, [x29, #-34]
	.loc	36 182 68 is_stmt 0
	sturb	wzr, [x29, #-33]
	.loc	36 180 15 is_stmt 1
	ldurb	w3, [x29, #-34]
	ldurb	w4, [x29, #-33]
	mov	w9, #0
	mov	w8, #1
	str	w8, [sp, #20]
	and	w1, w9, #0x1
	and	w2, w8, #0x1
	bl	__ZN4core4sync6atomic10AtomicBool21compare_exchange_weak17hf35198d453e8a21aE
	ldr	w8, [sp, #20]
	and	w8, w0, w8
	sub	x0, x29, #36
	sturb	w8, [x29, #-36]
	sturb	w1, [x29, #-35]
	bl	__ZN4core6result19Result$LT$T$C$E$GT$6is_err17hd5f3051d7b0e7692E
	tbz	w0, #0, LBB75_6
	b	LBB75_3
Ltmp389:
LBB75_3:
	.loc	36 186 19
	b	LBB75_4
Ltmp390:
LBB75_4:
	.loc	36 0 19 is_stmt 0
	ldr	x0, [sp, #32]
	stur	x0, [x29, #-8]
Ltmp391:
	.loc	36 207 24 is_stmt 1
	sturb	wzr, [x29, #-9]
	.loc	36 207 9 is_stmt 0
	ldurb	w1, [x29, #-9]
	bl	__ZN4core4sync6atomic10AtomicBool4load17h747347138efe4928E
Ltmp392:
	.loc	36 186 19 is_stmt 1
	tbz	w0, #0, LBB75_1
	b	LBB75_5
Ltmp393:
LBB75_5:
	.loc	32 29 9
	bl	__ZN4core4sync6atomic14spin_loop_hint17hbfdd5f9e0847c47fE
Ltmp394:
	.loc	36 187 17
	b	LBB75_4
Ltmp395:
LBB75_6:
	.loc	36 0 17 is_stmt 0
	ldr	x9, [sp, #32]
	.loc	36 193 34 is_stmt 1
	mov	x8, x9
	add	x8, x8, #8
	mov	x10, x8
	stur	x10, [x29, #-24]
	add	x0, sp, #40
Ltmp396:
	.loc	1 128 5
	str	x9, [sp, #40]
	str	x8, [sp, #48]
	bl	__ZN79_$LT$spin..mutex..MutexGuard$LT$T$GT$$u20$as$u20$core..ops..deref..DerefMut$GT$9deref_mut17h1ba503dc0f1a88f8E
	ldr	x1, [sp, #24]
	str	x0, [sp]
	add	x0, sp, #56
	str	x0, [sp, #8]
	mov	w8, #48
	mov	x2, x8
	bl	_memcpy
	ldr	x0, [sp]
	ldr	x1, [sp, #8]
	bl	__ZN4core3fmt5Write9write_fmt17hfa8d639ad3b22c6dE
	sturb	w0, [x29, #-50]
Ltmp397:
	.loc	28 1100 15
	ldurb	w8, [x29, #-50]
	.loc	28 1100 9 is_stmt 0
	tbz	w8, #0, LBB75_8
	b	LBB75_7
Ltmp398:
LBB75_7:
	.loc	28 1102 23 is_stmt 1
	adrp	x0, l___unnamed_38@PAGE
	add	x0, x0, l___unnamed_38@PAGEOFF
	mov	w8, #43
	mov	x1, x8
	sub	x2, x29, #49
	adrp	x3, l___unnamed_1@PAGE
	add	x3, x3, l___unnamed_1@PAGEOFF
	adrp	x4, l___unnamed_39@PAGE
	add	x4, x4, l___unnamed_39@PAGEOFF
	bl	__ZN4core6result13unwrap_failed17h5e4590a7ae843be2E
Ltmp399:
LBB75_8:
	.loc	1 128 43
	add	x0, sp, #40
	bl	__ZN4core3ptr74drop_in_place$LT$spin..mutex..MutexGuard$LT$rinux..vga_buf..Writer$GT$$GT$17h806ea6bafc588c7cE
	.loc	1 129 2 epilogue_begin
	ldp	x29, x30, [sp, #160]
	add	sp, sp, #176
Ltmp400:
	ret
Ltmp401:
Lfunc_end75:
	.cfi_endproc

	.globl	_main
	.p2align	2
_main:
Lfunc_begin76:
	.loc	31 7 0
	.cfi_startproc
	sub	sp, sp, #80
	stp	x29, x30, [sp, #64]
	add	x29, sp, #64
	.cfi_def_cfa w29, 16
	.cfi_offset w30, -8
	.cfi_offset w29, -16
	add	x8, sp, #8
	str	x8, [sp]
Ltmp402:
	.loc	1 118 47 prologue_end
	adrp	x0, l___unnamed_40@PAGE
	add	x0, x0, l___unnamed_40@PAGEOFF
	sub	x1, x29, #8
	bl	__ZN4core3fmt9Arguments6new_v117h3b38f8bfd300d4deE
	ldr	x0, [sp]
	.loc	1 118 23 is_stmt 0
	bl	__ZN5rinux7vga_buf6_print17h4d1bd7f1a1a876a2E
	.loc	31 9 2 epilogue_begin is_stmt 1
	ldp	x29, x30, [sp, #64]
	add	sp, sp, #80
	ret
Ltmp403:
Lfunc_end76:
	.cfi_endproc

	.section	__TEXT,__const
l___unnamed_3:
	.ascii	"unsafe precondition(s) violated: slice::get_unchecked_mut requires that the range is within the slice"

	.section	__TEXT,__literal16,16byte_literals
	.p2align	3, 0x0
l___unnamed_4:
	.space	8
	.space	8

	.section	__TEXT,__const
l___unnamed_5:
	.ascii	"unsafe precondition(s) violated: usize::unchecked_add cannot overflow"

l___unnamed_6:
	.ascii	"unsafe precondition(s) violated: usize::unchecked_sub cannot overflow"

l___unnamed_41:
	.ascii	"is_aligned_to: align is not a power-of-two"

	.section	__DATA,__const
	.p2align	3, 0x0
l___unnamed_7:
	.quad	l___unnamed_41
	.asciz	"*\000\000\000\000\000\000"

	.section	__TEXT,__const
l___unnamed_8:
	.ascii	"unsafe precondition(s) violated: ptr::read_volatile requires that the pointer argument is aligned and non-null"

l___unnamed_42:
	.ascii	"/private/tmp/rust-20240808-9779-6572l6/rustc-1.80.1-src/library/core/src/ptr/const_ptr.rs"

	.section	__DATA,__const
	.p2align	3, 0x0
l___unnamed_9:
	.quad	l___unnamed_42
	.asciz	"Y\000\000\000\000\000\000\000\206\006\000\000\r\000\000"

	.section	__TEXT,__const
l___unnamed_10:
	.ascii	"unsafe precondition(s) violated: ptr::write_volatile requires that the pointer argument is aligned and non-null"

l___unnamed_43:
	.ascii	"encode_utf8: need "

l___unnamed_44:
	.ascii	" bytes to encode U+"

l___unnamed_45:
	.ascii	", but the buffer has "

	.section	__DATA,__const
	.p2align	3, 0x0
l___unnamed_11:
	.quad	l___unnamed_43
	.asciz	"\022\000\000\000\000\000\000"
	.quad	l___unnamed_44
	.asciz	"\023\000\000\000\000\000\000"
	.quad	l___unnamed_45
	.asciz	"\025\000\000\000\000\000\000"

	.section	__TEXT,__const
l___unnamed_46:
	.ascii	"/private/tmp/rust-20240808-9779-6572l6/rustc-1.80.1-src/library/core/src/char/methods.rs"

	.section	__DATA,__const
	.p2align	3, 0x0
l___unnamed_13:
	.quad	l___unnamed_46
	.asciz	"X\000\000\000\000\000\000\000\005\007\000\000\r\000\000"

	.p2align	3, 0x0
l___unnamed_12:
	.quad	l___unnamed_46
	.asciz	"X\000\000\000\000\000\000\000\376\006\000\000\016\000\000"

	.section	__TEXT,__const
l___unnamed_47:
	.ascii	"there is no such thing as an acquire-release load"

	.section	__DATA,__const
	.p2align	3, 0x0
l___unnamed_14:
	.quad	l___unnamed_47
	.asciz	"1\000\000\000\000\000\000"

	.section	__TEXT,__const
l___unnamed_48:
	.ascii	"there is no such thing as a release load"

	.section	__DATA,__const
	.p2align	3, 0x0
l___unnamed_15:
	.quad	l___unnamed_48
	.asciz	"(\000\000\000\000\000\000"

	.section	__TEXT,__const
l___unnamed_49:
	.ascii	"/private/tmp/rust-20240808-9779-6572l6/rustc-1.80.1-src/library/core/src/sync/atomic.rs"

	.section	__DATA,__const
	.p2align	3, 0x0
l___unnamed_16:
	.quad	l___unnamed_49
	.asciz	"W\000\000\000\000\000\000\000\345\f\000\000\030\000\000"

	.p2align	3, 0x0
l___unnamed_17:
	.quad	l___unnamed_49
	.asciz	"W\000\000\000\000\000\000\000\346\f\000\000\027\000\000"

	.section	__TEXT,__const
l___unnamed_50:
	.ascii	"there is no such thing as a release failure ordering"

	.section	__DATA,__const
	.p2align	3, 0x0
l___unnamed_18:
	.quad	l___unnamed_50
	.asciz	"4\000\000\000\000\000\000"

	.section	__TEXT,__const
l___unnamed_51:
	.ascii	"there is no such thing as an acquire-release failure ordering"

	.section	__DATA,__const
	.p2align	3, 0x0
l___unnamed_19:
	.quad	l___unnamed_51
	.asciz	"=\000\000\000\000\000\000"

	.p2align	3, 0x0
l___unnamed_20:
	.quad	l___unnamed_49
	.asciz	"W\000\000\000\000\000\000\000:\r\000\000\035\000\000"

	.p2align	3, 0x0
l___unnamed_21:
	.quad	l___unnamed_49
	.asciz	"W\000\000\000\000\000\000\0009\r\000\000\034\000\000"

	.p2align	3, 0x0
l___unnamed_22:
	.quad	l___unnamed_49
	.asciz	"W\000\000\000\000\000\000\000]\r\000\000\035\000\000"

	.p2align	3, 0x0
l___unnamed_23:
	.quad	l___unnamed_49
	.asciz	"W\000\000\000\000\000\000\000\\\r\000\000\034\000\000"

	.section	__TEXT,__const
l___unnamed_38:
	.ascii	"called `Result::unwrap()` on an `Err` value"

	.section	__DATA,__const
	.p2align	3, 0x0
l___unnamed_1:
	.asciz	"\000\000\000\000\000\000\000\000\000\000\000\000\000\000\000\000\001\000\000\000\000\000\000"
	.quad	__ZN53_$LT$core..fmt..Error$u20$as$u20$core..fmt..Debug$GT$3fmt17h4f4136ce55b44dcbE

	.section	__TEXT,__const
l___unnamed_24:
	.ascii	"Lazy instance has previously been poisoned"

l___unnamed_52:
	.ascii	"/Users/yangzhenxun/.cargo/registry/src/index.crates.io-6f17d22bba15001f/spin-0.9.8/src/lazy.rs"

	.section	__DATA,__const
	.p2align	3, 0x0
l___unnamed_25:
	.quad	l___unnamed_52
	.asciz	"^\000\000\000\000\000\000\000d\000\000\000\025\000\000"

	.section	__TEXT,__const
l___unnamed_26:
	.ascii	"Once panicked"

l___unnamed_53:
	.ascii	"/Users/yangzhenxun/.cargo/registry/src/index.crates.io-6f17d22bba15001f/spin-0.9.8/src/once.rs"

	.section	__DATA,__const
	.p2align	3, 0x0
l___unnamed_27:
	.quad	l___unnamed_53
	.asciz	"^\000\000\000\000\000\000\000\346\000\000\000*\000\000"

	.section	__TEXT,__const
l___unnamed_28:
	.ascii	"Once previously poisoned by a panicked"

	.section	__DATA,__const
	.p2align	3, 0x0
l___unnamed_29:
	.quad	l___unnamed_53
	.asciz	"^\000\000\000\000\000\000\000N\001\000\000%\000\000"

	.section	__TEXT,__const
l___unnamed_30:
	.ascii	"Error"

l___unnamed_31:
	.byte	2

	.section	__DATA,__const
	.p2align	3, 0x0
l___unnamed_2:
	.asciz	"\000\000\000\000\000\000\000\000\030\000\000\000\000\000\000\000\b\000\000\000\000\000\000"
	.quad	__ZN59_$LT$rinux..vga_buf..Writer$u20$as$u20$core..fmt..Write$GT$9write_str17h6b294b3ff0b7565aE
	.quad	__ZN4core3fmt5Write10write_char17hbada09c455a62685E
	.quad	__ZN4core3fmt5Write9write_fmt17hfa8d639ad3b22c6dE

	.section	__TEXT,__const
l___unnamed_54:
	.ascii	"src/vga_buf.rs"

	.section	__DATA,__const
	.p2align	3, 0x0
l___unnamed_32:
	.quad	l___unnamed_54
	.asciz	"\016\000\000\000\000\000\000\000<\000\000\000\021\000\000"

	.p2align	3, 0x0
l___unnamed_33:
	.quad	l___unnamed_54
	.asciz	"\016\000\000\000\000\000\000\000@\000\000\000\021\000\000"

	.p2align	3, 0x0
l___unnamed_34:
	.quad	l___unnamed_54
	.asciz	"\016\000\000\000\000\000\000\000G\000\000\000!\000\000"

	.p2align	3, 0x0
l___unnamed_35:
	.quad	l___unnamed_54
	.asciz	"\016\000\000\000\000\000\000\000H\000\000\000#\000\000"

	.p2align	3, 0x0
l___unnamed_36:
	.quad	l___unnamed_54
	.asciz	"\016\000\000\000\000\000\000\000H\000\000\000\021\000\000"

	.p2align	3, 0x0
l___unnamed_37:
	.quad	l___unnamed_54
	.asciz	"\016\000\000\000\000\000\000\000T\000\000\000\r\000\000"

	.section	__DATA,__data
	.p2align	3, 0x0
__ZN5rinux7vga_buf6WRITER17hc786366e9558538fE:
	.space	32
	.space	1
	.space	7
	.quad	__ZN4core3ops8function6FnOnce9call_once17hb101a9e4376004ddE

	.section	__DATA,__const
	.p2align	3, 0x0
l___unnamed_39:
	.quad	l___unnamed_54
	.asciz	"\016\000\000\000\000\000\000\000\200\000\000\000#\000\000"

	.section	__TEXT,__const
l___unnamed_55:
	.ascii	"hello world!\n"

	.section	__DATA,__const
	.p2align	3, 0x0
l___unnamed_40:
	.quad	l___unnamed_55
	.asciz	"\r\000\000\000\000\000\000"

	.section	__DATA,__const
Lsec_end0:
	.section	__DATA,__data
Lsec_end1:
	.section	__TEXT,__text,regular,pure_instructions
Lsec_end2: